---
triple:          'arm64-apple-darwin'
binary-path:     LRU
relocations:
  - { offset: 0x10570, size: 0x8, addend: 0x0, symName: __ZStL8__ioinit, symObjAddr: 0xAA624, symBinAddr: 0x100018000, symSize: 0x0 }
  - { offset: 0x114F8, size: 0x8, addend: 0x0, symName: __GLOBAL__sub_I_LRUCache.cpp, symObjAddr: 0x990C, symBinAddr: 0x1000094FC, symSize: 0x14 }
  - { offset: 0x11510, size: 0x8, addend: 0x0, symName: __Z41__static_initialization_and_destruction_0v, symObjAddr: 0x98D0, symBinAddr: 0x1000094C0, symSize: 0x3C }
  - { offset: 0x11528, size: 0x8, addend: 0x0, symName: __ZNSt10_Head_baseILm0ERKNSt7__cxx1112basic_stringIcSt11char_traitsIcESaIcEEELb0EE7_M_headERS8_, symObjAddr: 0x8D68, symBinAddr: 0x1000094A8, symSize: 0x18 }
  - { offset: 0x11551, size: 0x8, addend: 0x0, symName: __ZNSt11_Tuple_implILm0EJRKNSt7__cxx1112basic_stringIcSt11char_traitsIcESaIcEEEEE7_M_headERS8_, symObjAddr: 0x8D4C, symBinAddr: 0x10000948C, symSize: 0x1C }
  - { offset: 0x115A6, size: 0x8, addend: 0x0, symName: __ZNSt12_Vector_baseIP9CacheNodeSaIS1_EE17_Vector_impl_dataC2EOS4_, symObjAddr: 0x8CDC, symBinAddr: 0x10000941C, symSize: 0x70 }
  - { offset: 0x115FB, size: 0x8, addend: 0x0, symName: __ZSt12__get_helperILm0ERKNSt7__cxx1112basic_stringIcSt11char_traitsIcESaIcEEEJEERT0_RSt11_Tuple_implIXT_EJS8_DpT1_EE, symObjAddr: 0x8CC0, symBinAddr: 0x100009400, symSize: 0x1C }
  - { offset: 0x11668, size: 0x8, addend: 0x0, symName: __ZNSt12_Vector_baseIP9CacheNodeSaIS1_EE12_Vector_implC1EOS4_, symObjAddr: 0x8C60, symBinAddr: 0x1000093A0, symSize: 0x60 }
  - { offset: 0x11765, size: 0x8, addend: 0x0, symName: __ZNSt14_List_iteratorISt4pairINSt7__cxx1112basic_stringIcSt11char_traitsIcESaIcEEES6_EEC1Ev, symObjAddr: 0x8C44, symBinAddr: 0x100009384, symSize: 0x1C }
  - { offset: 0x117AB, size: 0x8, addend: 0x0, symName: __ZSt3getILm0EJRKNSt7__cxx1112basic_stringIcSt11char_traitsIcESaIcEEEEERNSt13tuple_elementIXT_ESt5tupleIJDpT0_EEE4typeERSC_, symObjAddr: 0x8C28, symBinAddr: 0x100009368, symSize: 0x1C }
  - { offset: 0x1187F, size: 0x8, addend: 0x0, symName: __ZNSt6vectorIP9CacheNodeSaIS1_EEC1EOS3_, symObjAddr: 0x8C00, symBinAddr: 0x100009340, symSize: 0x28 }
  - { offset: 0x118CD, size: 0x8, addend: 0x0, symName: __ZNSt12_Vector_baseIP9CacheNodeSaIS1_EEC2EOS3_, symObjAddr: 0x8BD8, symBinAddr: 0x100009318, symSize: 0x28 }
  - { offset: 0x11936, size: 0x8, addend: 0x0, symName: __ZNSt15__new_allocatorIPNSt8__detail15_Hash_node_baseEE8allocateEmPKv, symObjAddr: 0x8B5C, symBinAddr: 0x10000929C, symSize: 0x7C }
  - { offset: 0x11A15, size: 0x8, addend: 0x0, symName: __ZNSt4pairIKNSt7__cxx1112basic_stringIcSt11char_traitsIcESaIcEEESt14_List_iteratorIS_IS5_S5_EEEC1IJRS6_EJLm0EEJEJEEERSt5tupleIJDpT_EERSD_IJDpT1_EESt12_Index_tupleIJXspT0_EEESM_IJXspT2_EEE, symObjAddr: 0x8B00, symBinAddr: 0x100009240, symSize: 0x5C }
  - { offset: 0x11AB0, size: 0x8, addend: 0x0, symName: __ZNK9__gnu_cxx16__aligned_bufferISt4pairIKNSt7__cxx1112basic_stringIcSt11char_traitsIcESaIcEEESt14_List_iteratorIS1_IS7_S7_EEEE7_M_addrEv, symObjAddr: 0x8AEC, symBinAddr: 0x10000922C, symSize: 0x14 }
  - { offset: 0x11C33, size: 0x8, addend: 0x0, symName: __ZNSt15__new_allocatorISt10_List_nodeISt4pairINSt7__cxx1112basic_stringIcSt11char_traitsIcESaIcEEES7_EEE8allocateEmPKv, symObjAddr: 0x8A5C, symBinAddr: 0x10000919C, symSize: 0x90 }
  - { offset: 0x11D36, size: 0x8, addend: 0x0, symName: __ZNSt4pairIKNSt7__cxx1112basic_stringIcSt11char_traitsIcESaIcEEESt14_List_iteratorIS_IS5_S5_EEEC1IJRS6_EJEEESt21piecewise_construct_tSt5tupleIJDpT_EESE_IJDpT0_EE, symObjAddr: 0x8A20, symBinAddr: 0x100009160, symSize: 0x3C }
  - { offset: 0x11DB0, size: 0x8, addend: 0x0, symName: __ZNSt11_Tuple_implILm0EJRKNSt7__cxx1112basic_stringIcSt11char_traitsIcESaIcEEEEEC2EOS8_, symObjAddr: 0x89F8, symBinAddr: 0x100009138, symSize: 0x28 }
  - { offset: 0x11DF5, size: 0x8, addend: 0x0, symName: __ZNK9__gnu_cxx16__aligned_bufferISt4pairIKNSt7__cxx1112basic_stringIcSt11char_traitsIcESaIcEEESt14_List_iteratorIS1_IS7_S7_EEEE6_M_ptrEv, symObjAddr: 0x89DC, symBinAddr: 0x10000911C, symSize: 0x1C }
  - { offset: 0x11F39, size: 0x8, addend: 0x0, symName: __ZSt19__relocate_object_aISt6vectorIP9CacheNodeSaIS2_EES4_SaIS4_EEvPT_PT0_RT1_, symObjAddr: 0x88EC, symBinAddr: 0x10000902C, symSize: 0xF0 }
  - { offset: 0x12118, size: 0x8, addend: 0x0, symName: __ZNSt19_UninitDestroyGuardIPSt6vectorIP9CacheNodeSaIS2_EEvE7releaseEv, symObjAddr: 0x88D0, symBinAddr: 0x100009010, symSize: 0x1C }
  - { offset: 0x1213E, size: 0x8, addend: 0x0, symName: __ZSt10_ConstructISt6vectorIP9CacheNodeSaIS2_EEJEEvPT_DpOT0_, symObjAddr: 0x8870, symBinAddr: 0x100008FB0, symSize: 0x60 }
  - { offset: 0x1219C, size: 0x8, addend: 0x0, symName: __ZNSt19_UninitDestroyGuardIPSt6vectorIP9CacheNodeSaIS2_EEvED1Ev, symObjAddr: 0x8818, symBinAddr: 0x100008F58, symSize: 0x58 }
  - { offset: 0x121E9, size: 0x8, addend: 0x0, symName: __ZNSt19_UninitDestroyGuardIPSt6vectorIP9CacheNodeSaIS2_EEvEC1ERS5_, symObjAddr: 0x87E4, symBinAddr: 0x100008F24, symSize: 0x34 }
  - { offset: 0x122CF, size: 0x8, addend: 0x0, symName: __ZNSt15__allocated_ptrISaISt10_List_nodeISt4pairINSt7__cxx1112basic_stringIcSt11char_traitsIcESaIcEEES7_EEEEC2EOSB_, symObjAddr: 0x87A4, symBinAddr: 0x100008EE4, symSize: 0x40 }
  - { offset: 0x12356, size: 0x8, addend: 0x0, symName: __ZNSt15__allocated_ptrISaISt10_List_nodeISt4pairINSt7__cxx1112basic_stringIcSt11char_traitsIcESaIcEEES7_EEEEC1ERSA_PS9_, symObjAddr: 0x8768, symBinAddr: 0x100008EA8, symSize: 0x3C }
  - { offset: 0x123D5, size: 0x8, addend: 0x0, symName: __ZNSt8__detail16_Hashtable_allocISaINS_10_Hash_nodeISt4pairIKNSt7__cxx1112basic_stringIcSt11char_traitsIcESaIcEEESt14_List_iteratorIS2_IS8_S8_EEELb1EEEEE19_M_allocate_bucketsEm, symObjAddr: 0x86B4, symBinAddr: 0x100008DF4, symSize: 0xB4 }
  - { offset: 0x125A7, size: 0x8, addend: 0x0, symName: __ZNSt5tupleIJRKNSt7__cxx1112basic_stringIcSt11char_traitsIcESaIcEEEEEC1EOS8_, symObjAddr: 0x868C, symBinAddr: 0x100008DCC, symSize: 0x28 }
  - { offset: 0x125D6, size: 0x8, addend: 0x0, symName: __ZNSt15__new_allocatorINSt8__detail10_Hash_nodeISt4pairIKNSt7__cxx1112basic_stringIcSt11char_traitsIcESaIcEEESt14_List_iteratorIS2_IS8_S8_EEELb1EEEE8allocateEmPKv, symObjAddr: 0x85F4, symBinAddr: 0x100008D34, symSize: 0x98 }
  - { offset: 0x12648, size: 0x8, addend: 0x0, symName: __ZSteqIcSt11char_traitsIcESaIcEEbRKNSt7__cxx1112basic_stringIT_T0_T1_EESA_, symObjAddr: 0x8574, symBinAddr: 0x100008CB4, symSize: 0x80 }
  - { offset: 0x12700, size: 0x8, addend: 0x0, symName: __ZNSt15__new_allocatorIPNSt8__detail15_Hash_node_baseEE10deallocateEPS2_m, symObjAddr: 0x8544, symBinAddr: 0x100008C84, symSize: 0x30 }
  - { offset: 0x12764, size: 0x8, addend: 0x0, symName: __ZNSt15__new_allocatorIPNSt8__detail15_Hash_node_baseEED2Ev, symObjAddr: 0x8530, symBinAddr: 0x100008C70, symSize: 0x14 }
  - { offset: 0x127BE, size: 0x8, addend: 0x0, symName: __ZNSt15__new_allocatorINSt8__detail10_Hash_nodeISt4pairIKNSt7__cxx1112basic_stringIcSt11char_traitsIcESaIcEEESt14_List_iteratorIS2_IS8_S8_EEELb1EEEE10deallocateEPSE_m, symObjAddr: 0x84F4, symBinAddr: 0x100008C34, symSize: 0x3C }
  - { offset: 0x1282A, size: 0x8, addend: 0x0, symName: __ZN9__gnu_cxx16__aligned_bufferISt4pairIKNSt7__cxx1112basic_stringIcSt11char_traitsIcESaIcEEESt14_List_iteratorIS1_IS7_S7_EEEE7_M_addrEv, symObjAddr: 0x84E0, symBinAddr: 0x100008C20, symSize: 0x14 }
  - { offset: 0x12854, size: 0x8, addend: 0x0, symName: __ZNSt15__new_allocatorISt10_List_nodeISt4pairINSt7__cxx1112basic_stringIcSt11char_traitsIcESaIcEEES7_EEE10deallocateEPS9_m, symObjAddr: 0x84A4, symBinAddr: 0x100008BE4, symSize: 0x3C }
  - { offset: 0x1289E, size: 0x8, addend: 0x0, symName: __ZNKSt4lessIPKcEclES1_S1_, symObjAddr: 0x8450, symBinAddr: 0x100008B90, symSize: 0x54 }
  - { offset: 0x1294F, size: 0x8, addend: 0x0, symName: __ZSt14__copy_move_a2ILb0EPP9CacheNodeS2_S2_ET2_T0_T1_S3_, symObjAddr: 0x8324, symBinAddr: 0x100008A64, symSize: 0x12C }
  - { offset: 0x12AF3, size: 0x8, addend: 0x0, symName: __ZSt14__copy_move_a2ILb0EPKP9CacheNodeS3_PS1_ET2_T0_T1_S5_, symObjAddr: 0x81F8, symBinAddr: 0x100008938, symSize: 0x12C }
  - { offset: 0x12C73, size: 0x8, addend: 0x0, symName: __ZSt14__relocate_a_1IPSt6vectorIP9CacheNodeSaIS2_EES5_SaIS4_EET0_T_S8_S7_RT1_, symObjAddr: 0x8180, symBinAddr: 0x1000088C0, symSize: 0x78 }
  - { offset: 0x12D67, size: 0x8, addend: 0x0, symName: __ZNSt15__new_allocatorISt6vectorIP9CacheNodeSaIS2_EEE8allocateEmPKv, symObjAddr: 0x80F0, symBinAddr: 0x100008830, symSize: 0x90 }
  - { offset: 0x12DD9, size: 0x8, addend: 0x0, symName: __ZNSt27__uninitialized_default_n_1ILb0EE18__uninit_default_nIPSt6vectorIP9CacheNodeSaIS4_EEmEET_S8_T0_, symObjAddr: 0x8074, symBinAddr: 0x1000087B4, symSize: 0x7C }
  - { offset: 0x12E71, size: 0x8, addend: 0x0, symName: __ZSt14__relocate_a_1IP9CacheNodeS1_ENSt9enable_ifIXsrSt24__is_bitwise_relocatableIT_vE5valueEPS4_E4typeES6_S6_S6_RSaIT0_E, symObjAddr: 0x8010, symBinAddr: 0x100008750, symSize: 0x64 }
  - { offset: 0x12EF5, size: 0x8, addend: 0x0, symName: __ZNSt15__new_allocatorIP9CacheNodeE8allocateEmPKv, symObjAddr: 0x7F94, symBinAddr: 0x1000086D4, symSize: 0x7C }
  - { offset: 0x12F67, size: 0x8, addend: 0x0, symName: __ZNSt6vectorIP9CacheNodeSaIS1_EE11_S_max_sizeERKS2_, symObjAddr: 0x7F40, symBinAddr: 0x100008680, symSize: 0x54 }
  - { offset: 0x1301E, size: 0x8, addend: 0x0, symName: __ZSt10__exchangeIPSt10_List_nodeISt4pairINSt7__cxx1112basic_stringIcSt11char_traitsIcESaIcEEES7_EEDnET_RSB_OT0_, symObjAddr: 0x7F04, symBinAddr: 0x100008644, symSize: 0x3C }
  - { offset: 0x13105, size: 0x8, addend: 0x0, symName: __ZNSt4pairINSt7__cxx1112basic_stringIcSt11char_traitsIcESaIcEEES5_EC1EOS6_, symObjAddr: 0x7EC0, symBinAddr: 0x100008600, symSize: 0x44 }
  - { offset: 0x13134, size: 0x8, addend: 0x0, symName: __ZNKSt15__allocated_ptrISaISt10_List_nodeISt4pairINSt7__cxx1112basic_stringIcSt11char_traitsIcESaIcEEES7_EEEE3getEv, symObjAddr: 0x7EA0, symBinAddr: 0x1000085E0, symSize: 0x20 }
  - { offset: 0x13181, size: 0x8, addend: 0x0, symName: __ZNKSt15__allocated_ptrISaISt10_List_nodeISt4pairINSt7__cxx1112basic_stringIcSt11char_traitsIcESaIcEEES7_EEEEcvbEv, symObjAddr: 0x7E7C, symBinAddr: 0x1000085BC, symSize: 0x24 }
  - { offset: 0x131D2, size: 0x8, addend: 0x0, symName: __ZNSt15__allocated_objISaISt10_List_nodeISt4pairINSt7__cxx1112basic_stringIcSt11char_traitsIcESaIcEEES7_EEEEC1EOSt15__allocated_ptrISA_E, symObjAddr: 0x7E0C, symBinAddr: 0x10000854C, symSize: 0x70 }
  - { offset: 0x1323E, size: 0x8, addend: 0x0, symName: __ZNSt15__allocated_ptrISaISt10_List_nodeISt4pairINSt7__cxx1112basic_stringIcSt11char_traitsIcESaIcEEES7_EEEED1Ev, symObjAddr: 0x7DB0, symBinAddr: 0x1000084F0, symSize: 0x5C }
  - { offset: 0x1329D, size: 0x8, addend: 0x0, symName: __ZNSt15__allocated_ptrISaISt10_List_nodeISt4pairINSt7__cxx1112basic_stringIcSt11char_traitsIcESaIcEEES7_EEEED2Ev, symObjAddr: 0x7D54, symBinAddr: 0x100008494, symSize: 0x5C }
  - { offset: 0x132F4, size: 0x8, addend: 0x0, symName: __ZSt18__allocate_guardedISaISt10_List_nodeISt4pairINSt7__cxx1112basic_stringIcSt11char_traitsIcESaIcEEES7_EEEESt15__allocated_ptrIT_ERSC_, symObjAddr: 0x7CFC, symBinAddr: 0x10000843C, symSize: 0x58 }
  - { offset: 0x13356, size: 0x8, addend: 0x0, symName: __ZNSt15__new_allocatorIcE8allocateEmPKv, symObjAddr: 0x7C98, symBinAddr: 0x1000083D8, symSize: 0x64 }
  - { offset: 0x133CC, size: 0x8, addend: 0x0, symName: __ZNSt10_HashtableINSt7__cxx1112basic_stringIcSt11char_traitsIcESaIcEEESt4pairIKS5_St14_List_iteratorIS6_IS5_S5_EEESaISB_ENSt8__detail10_Select1stESt8equal_toIS5_ESt4hashIS5_ENSD_18_Mod_range_hashingENSD_20_Default_ranged_hashENSD_20_Prime_rehash_policyENSD_17_Hashtable_traitsILb1ELb0ELb1EEEE19_M_allocate_bucketsEm, symObjAddr: 0x7C40, symBinAddr: 0x100008380, symSize: 0x58 }
  - { offset: 0x134EA, size: 0x8, addend: 0x0, symName: __ZNSt10_Head_baseILm0ERKNSt7__cxx1112basic_stringIcSt11char_traitsIcESaIcEEELb0EEC2ES7_, symObjAddr: 0x7C1C, symBinAddr: 0x10000835C, symSize: 0x24 }
  - { offset: 0x13519, size: 0x8, addend: 0x0, symName: __ZNKSt8__detail15_Hashtable_baseINSt7__cxx1112basic_stringIcSt11char_traitsIcESaIcEEESt4pairIKS6_St14_List_iteratorIS7_IS6_S6_EEENS_10_Select1stESt8equal_toIS6_ESt4hashIS6_ENS_18_Mod_range_hashingENS_20_Default_ranged_hashENS_17_Hashtable_traitsILb1ELb0ELb1EEEE9_M_equalsERS8_mRKNS_16_Hash_node_valueISC_Lb1EEE, symObjAddr: 0x7BCC, symBinAddr: 0x10000830C, symSize: 0x50 }
  - { offset: 0x13576, size: 0x8, addend: 0x0, symName: __ZNKSt8equal_toINSt7__cxx1112basic_stringIcSt11char_traitsIcESaIcEEEEclERKS5_S8_, symObjAddr: 0x7BA4, symBinAddr: 0x1000082E4, symSize: 0x28 }
  - { offset: 0x135CD, size: 0x8, addend: 0x0, symName: __ZNKSt8__detail10_Select1stclIRKSt4pairIKNSt7__cxx1112basic_stringIcSt11char_traitsIcESaIcEEESt14_List_iteratorIS2_IS8_S8_EEEEEONS0_10__1st_typeIT_E4typeEOSH_, symObjAddr: 0x7B84, symBinAddr: 0x1000082C4, symSize: 0x20 }
  - { offset: 0x13649, size: 0x8, addend: 0x0, symName: __ZNKSt8__detail15_Hashtable_baseINSt7__cxx1112basic_stringIcSt11char_traitsIcESaIcEEESt4pairIKS6_St14_List_iteratorIS7_IS6_S6_EEENS_10_Select1stESt8equal_toIS6_ESt4hashIS6_ENS_18_Mod_range_hashingENS_20_Default_ranged_hashENS_17_Hashtable_traitsILb1ELb0ELb1EEEE5_M_eqEv, symObjAddr: 0x7B70, symBinAddr: 0x1000082B0, symSize: 0x14 }
  - { offset: 0x1368D, size: 0x8, addend: 0x0, symName: __ZNSt8__detail22_Hashtable_hash_traitsISt4hashINSt7__cxx1112basic_stringIcSt11char_traitsIcESaIcEEEEE22__small_size_thresholdEv, symObjAddr: 0x7B68, symBinAddr: 0x1000082A8, symSize: 0x8 }
  - { offset: 0x13711, size: 0x8, addend: 0x0, symName: __ZNSt19__ptr_traits_ptr_toIPPNSt8__detail15_Hash_node_baseES2_Lb0EE10pointer_toERS2_, symObjAddr: 0x7B40, symBinAddr: 0x100008280, symSize: 0x28 }
  - { offset: 0x137B2, size: 0x8, addend: 0x0, symName: __ZNSt19__ptr_traits_ptr_toIPNSt8__detail10_Hash_nodeISt4pairIKNSt7__cxx1112basic_stringIcSt11char_traitsIcESaIcEEESt14_List_iteratorIS2_IS8_S8_EEELb1EEESE_Lb0EE10pointer_toERSE_, symObjAddr: 0x7B18, symBinAddr: 0x100008258, symSize: 0x28 }
  - { offset: 0x1386F, size: 0x8, addend: 0x0, symName: __ZNSt4pairIKNSt7__cxx1112basic_stringIcSt11char_traitsIcESaIcEEESt14_List_iteratorIS_IS5_S5_EEED1Ev, symObjAddr: 0x7AF8, symBinAddr: 0x100008238, symSize: 0x20 }
  - { offset: 0x13895, size: 0x8, addend: 0x0, symName: __ZN9__gnu_cxx16__aligned_bufferISt4pairIKNSt7__cxx1112basic_stringIcSt11char_traitsIcESaIcEEESt14_List_iteratorIS1_IS7_S7_EEEE6_M_ptrEv, symObjAddr: 0x7ADC, symBinAddr: 0x10000821C, symSize: 0x1C }
  - { offset: 0x13921, size: 0x8, addend: 0x0, symName: __ZNSt7__cxx1112basic_stringIcSt11char_traitsIcESaIcEE9_M_mutateEmmPKcm, symObjAddr: 0x7984, symBinAddr: 0x1000080C4, symSize: 0x158 }
  - { offset: 0x139C7, size: 0x8, addend: 0x0, symName: __ZNSt7__cxx1112basic_stringIcSt11char_traitsIcESaIcEE15_M_replace_coldEPcmPKcmm, symObjAddr: 0x77EC, symBinAddr: 0x100007F2C, symSize: 0x198 }
  - { offset: 0x13A8A, size: 0x8, addend: 0x0, symName: __ZNSt7__cxx1112basic_stringIcSt11char_traitsIcESaIcEE7_S_moveEPcPKcm, symObjAddr: 0x77A0, symBinAddr: 0x100007EE0, symSize: 0x4C }
  - { offset: 0x13ADA, size: 0x8, addend: 0x0, symName: __ZNKSt7__cxx1112basic_stringIcSt11char_traitsIcESaIcEE11_M_disjunctEPKc, symObjAddr: 0x771C, symBinAddr: 0x100007E5C, symSize: 0x84 }
  - { offset: 0x13B8E, size: 0x8, addend: 0x0, symName: __ZNSt7__cxx1112basic_stringIcSt11char_traitsIcESaIcEE9_M_appendEPKcm, symObjAddr: 0x7654, symBinAddr: 0x100007D94, symSize: 0xC8 }
  - { offset: 0x13BEB, size: 0x8, addend: 0x0, symName: __ZNKSt7__cxx1112basic_stringIcSt11char_traitsIcESaIcEE15_M_check_lengthEmmPKc, symObjAddr: 0x75E0, symBinAddr: 0x100007D20, symSize: 0x74 }
  - { offset: 0x13C44, size: 0x8, addend: 0x0, symName: __ZSt8_DestroyISt6vectorIP9CacheNodeSaIS2_EEEvPT_, symObjAddr: 0x75C0, symBinAddr: 0x100007D00, symSize: 0x20 }
  - { offset: 0x13C98, size: 0x8, addend: 0x0, symName: __ZNSt15__new_allocatorISt6vectorIP9CacheNodeSaIS2_EEE10deallocateEPS4_m, symObjAddr: 0x7584, symBinAddr: 0x100007CC4, symSize: 0x3C }
  - { offset: 0x13CE2, size: 0x8, addend: 0x0, symName: __ZNSt15__new_allocatorIcE10deallocateEPcm, symObjAddr: 0x755C, symBinAddr: 0x100007C9C, symSize: 0x28 }
  - { offset: 0x13DB9, size: 0x8, addend: 0x0, symName: __ZSt12__niter_wrapIN9__gnu_cxx17__normal_iteratorIPP9CacheNodeSt6vectorIS3_SaIS3_EEEES4_ET_S9_T0_, symObjAddr: 0x74FC, symBinAddr: 0x100007C3C, symSize: 0x60 }
  - { offset: 0x13F62, size: 0x8, addend: 0x0, symName: __ZNSt15__new_allocatorIP9CacheNodeE10deallocateEPS1_m, symObjAddr: 0x74CC, symBinAddr: 0x100007C0C, symSize: 0x30 }
  - { offset: 0x13FA8, size: 0x8, addend: 0x0, symName: __ZSt12__relocate_aIPSt6vectorIP9CacheNodeSaIS2_EES5_SaIS4_EET0_T_S8_S7_RT1_, symObjAddr: 0x7480, symBinAddr: 0x100007BC0, symSize: 0x4C }
  - { offset: 0x140B0, size: 0x8, addend: 0x0, symName: __ZSt25__uninitialized_default_nIPSt6vectorIP9CacheNodeSaIS2_EEmET_S6_T0_, symObjAddr: 0x7454, symBinAddr: 0x100007B94, symSize: 0x2C }
  - { offset: 0x14112, size: 0x8, addend: 0x0, symName: __ZNKSt12_Vector_baseISt6vectorIP9CacheNodeSaIS2_EESaIS4_EE19_M_get_Tp_allocatorEv, symObjAddr: 0x7440, symBinAddr: 0x100007B80, symSize: 0x14 }
  - { offset: 0x14138, size: 0x8, addend: 0x0, symName: __ZNSt6vectorIS_IP9CacheNodeSaIS1_EESaIS3_EE11_S_max_sizeERKS4_, symObjAddr: 0x73E4, symBinAddr: 0x100007B24, symSize: 0x5C }
  - { offset: 0x141EF, size: 0x8, addend: 0x0, symName: __ZSt12__relocate_aIPP9CacheNodeS2_SaIS1_EET0_T_S5_S4_RT1_, symObjAddr: 0x7398, symBinAddr: 0x100007AD8, symSize: 0x4C }
  - { offset: 0x142FB, size: 0x8, addend: 0x0, symName: __ZNKSt6vectorIP9CacheNodeSaIS1_EE8max_sizeEv, symObjAddr: 0x7378, symBinAddr: 0x100007AB8, symSize: 0x20 }
  - { offset: 0x14325, size: 0x8, addend: 0x0, symName: __ZNSt15__allocated_ptrISaISt10_List_nodeISt4pairINSt7__cxx1112basic_stringIcSt11char_traitsIcESaIcEEES7_EEEE7releaseEv, symObjAddr: 0x7350, symBinAddr: 0x100007A90, symSize: 0x28 }
  - { offset: 0x14397, size: 0x8, addend: 0x0, symName: __ZNKSt15__allocated_objISaISt10_List_nodeISt4pairINSt7__cxx1112basic_stringIcSt11char_traitsIcESaIcEEES7_EEEEptEv, symObjAddr: 0x7334, symBinAddr: 0x100007A74, symSize: 0x1C }
  - { offset: 0x143DB, size: 0x8, addend: 0x0, symName: __ZNSt15__allocated_objISaISt10_List_nodeISt4pairINSt7__cxx1112basic_stringIcSt11char_traitsIcESaIcEEES7_EEEED1Ev, symObjAddr: 0x72F8, symBinAddr: 0x100007A38, symSize: 0x3C }
  - { offset: 0x143FD, size: 0x8, addend: 0x0, symName: __ZSt22__allocate_guarded_objISaISt10_List_nodeISt4pairINSt7__cxx1112basic_stringIcSt11char_traitsIcESaIcEEES7_EEEESt15__allocated_objIT_ERSC_, symObjAddr: 0x7290, symBinAddr: 0x1000079D0, symSize: 0x68 }
  - { offset: 0x14433, size: 0x8, addend: 0x0, symName: __ZNSt10_HashtableINSt7__cxx1112basic_stringIcSt11char_traitsIcESaIcEEESt4pairIKS5_St14_List_iteratorIS6_IS5_S5_EEESaISB_ENSt8__detail10_Select1stESt8equal_toIS5_ESt4hashIS5_ENSD_18_Mod_range_hashingENSD_20_Default_ranged_hashENSD_20_Prime_rehash_policyENSD_17_Hashtable_traitsILb1ELb0ELb1EEEE22_M_remove_bucket_beginEmPNSD_10_Hash_nodeISB_Lb1EEEm, symObjAddr: 0x71F0, symBinAddr: 0x100007930, symSize: 0xA0 }
  - { offset: 0x14490, size: 0x8, addend: 0x0, symName: __ZNKSt8__detail15_Hash_code_baseINSt7__cxx1112basic_stringIcSt11char_traitsIcESaIcEEESt4pairIKS6_St14_List_iteratorIS7_IS6_S6_EEENS_10_Select1stESt4hashIS6_ENS_18_Mod_range_hashingENS_20_Default_ranged_hashELb1EE15_M_bucket_indexERKNS_16_Hash_node_valueISC_Lb1EEEm, symObjAddr: 0x71C0, symBinAddr: 0x100007900, symSize: 0x30 }
  - { offset: 0x14504, size: 0x8, addend: 0x0, symName: __ZN9__gnu_cxx16__aligned_membufISt4pairINSt7__cxx1112basic_stringIcSt11char_traitsIcESaIcEEES7_EE7_M_addrEv, symObjAddr: 0x71AC, symBinAddr: 0x1000078EC, symSize: 0x14 }
  - { offset: 0x14540, size: 0x8, addend: 0x0, symName: __ZNKSt7__cxx1110_List_baseISt4pairINS_12basic_stringIcSt11char_traitsIcESaIcEEES6_ESaIS7_EE21_M_get_Node_allocatorEv, symObjAddr: 0x7198, symBinAddr: 0x1000078D8, symSize: 0x14 }
  - { offset: 0x1456A, size: 0x8, addend: 0x0, symName: __ZNSt7__cxx1110_List_baseISt4pairINS_12basic_stringIcSt11char_traitsIcESaIcEEES6_ESaIS7_EE21_M_get_Node_allocatorEv, symObjAddr: 0x7184, symBinAddr: 0x1000078C4, symSize: 0x14 }
  - { offset: 0x14594, size: 0x8, addend: 0x0, symName: __ZNSt10_HashtableINSt7__cxx1112basic_stringIcSt11char_traitsIcESaIcEEESt4pairIKS5_St14_List_iteratorIS6_IS5_S5_EEESaISB_ENSt8__detail10_Select1stESt8equal_toIS5_ESt4hashIS5_ENSD_18_Mod_range_hashingENSD_20_Default_ranged_hashENSD_20_Prime_rehash_policyENSD_17_Hashtable_traitsILb1ELb0ELb1EEEE22_M_insert_bucket_beginEmPNSD_10_Hash_nodeISB_Lb1EEE, symObjAddr: 0x7078, symBinAddr: 0x1000077B8, symSize: 0x10C }
  - { offset: 0x145E0, size: 0x8, addend: 0x0, symName: __ZNKSt10_HashtableINSt7__cxx1112basic_stringIcSt11char_traitsIcESaIcEEESt4pairIKS5_St14_List_iteratorIS6_IS5_S5_EEESaISB_ENSt8__detail10_Select1stESt8equal_toIS5_ESt4hashIS5_ENSD_18_Mod_range_hashingENSD_20_Default_ranged_hashENSD_20_Prime_rehash_policyENSD_17_Hashtable_traitsILb1ELb0ELb1EEEE13_M_store_codeERNSD_16_Hash_node_valueISB_Lb1EEEm, symObjAddr: 0x7050, symBinAddr: 0x100007790, symSize: 0x28 }
  - { offset: 0x1462C, size: 0x8, addend: 0x0, symName: __ZNSt10_HashtableINSt7__cxx1112basic_stringIcSt11char_traitsIcESaIcEEESt4pairIKS5_St14_List_iteratorIS6_IS5_S5_EEESaISB_ENSt8__detail10_Select1stESt8equal_toIS5_ESt4hashIS5_ENSD_18_Mod_range_hashingENSD_20_Default_ranged_hashENSD_20_Prime_rehash_policyENSD_17_Hashtable_traitsILb1ELb0ELb1EEEE9_M_rehashEmSt17integral_constantIbLb1EE, symObjAddr: 0x6EE4, symBinAddr: 0x100007624, symSize: 0x16C }
  - { offset: 0x146F3, size: 0x8, addend: 0x0, symName: __ZNSt8__detail17_RehashStateGuardINS_20_Prime_rehash_policyEED1Ev, symObjAddr: 0x6EA0, symBinAddr: 0x1000075E0, symSize: 0x44 }
  - { offset: 0x14741, size: 0x8, addend: 0x0, symName: __ZNSt8__detail17_RehashStateGuardINS_20_Prime_rehash_policyEEC1ERS1_, symObjAddr: 0x6E5C, symBinAddr: 0x10000759C, symSize: 0x44 }
  - { offset: 0x14794, size: 0x8, addend: 0x0, symName: __ZNSt8__detail16_Hashtable_allocISaINS_10_Hash_nodeISt4pairIKNSt7__cxx1112basic_stringIcSt11char_traitsIcESaIcEEESt14_List_iteratorIS2_IS8_S8_EEELb1EEEEE16_M_allocate_nodeIJRKSt21piecewise_construct_tSt5tupleIJRS9_EESL_IJEEEEEPSE_DpOT_, symObjAddr: 0x6C2C, symBinAddr: 0x10000736C, symSize: 0x230 }
  - { offset: 0x14A8F, size: 0x8, addend: 0x0, symName: __ZNSt8__detail10_Hash_nodeISt4pairIKNSt7__cxx1112basic_stringIcSt11char_traitsIcESaIcEEESt14_List_iteratorIS1_IS7_S7_EEELb1EEC1Ev, symObjAddr: 0x6C0C, symBinAddr: 0x10000734C, symSize: 0x20 }
  - { offset: 0x14B49, size: 0x8, addend: 0x0, symName: __ZNSt11_Tuple_implILm0EJRKNSt7__cxx1112basic_stringIcSt11char_traitsIcESaIcEEEEEC2ES7_, symObjAddr: 0x6BE4, symBinAddr: 0x100007324, symSize: 0x28 }
  - { offset: 0x14B78, size: 0x8, addend: 0x0, symName: __ZNKSt8__detail15_Hash_code_baseINSt7__cxx1112basic_stringIcSt11char_traitsIcESaIcEEESt4pairIKS6_St14_List_iteratorIS7_IS6_S6_EEENS_10_Select1stESt4hashIS6_ENS_18_Mod_range_hashingENS_20_Default_ranged_hashELb1EE15_M_bucket_indexEmm, symObjAddr: 0x6BB8, symBinAddr: 0x1000072F8, symSize: 0x2C }
  - { offset: 0x14BEC, size: 0x8, addend: 0x0, symName: __ZNSt8__detail19_Node_iterator_baseISt4pairIKNSt7__cxx1112basic_stringIcSt11char_traitsIcESaIcEEESt14_List_iteratorIS1_IS7_S7_EEELb1EEC2EPNS_10_Hash_nodeISC_Lb1EEE, symObjAddr: 0x6B94, symBinAddr: 0x1000072D4, symSize: 0x24 }
  - { offset: 0x14C1B, size: 0x8, addend: 0x0, symName: __ZNKSt10_HashtableINSt7__cxx1112basic_stringIcSt11char_traitsIcESaIcEEESt4pairIKS5_St14_List_iteratorIS6_IS5_S5_EEESaISB_ENSt8__detail10_Select1stESt8equal_toIS5_ESt4hashIS5_ENSD_18_Mod_range_hashingENSD_20_Default_ranged_hashENSD_20_Prime_rehash_policyENSD_17_Hashtable_traitsILb1ELb0ELb1EEEE19_M_find_before_nodeEmRS7_m, symObjAddr: 0x6A68, symBinAddr: 0x1000071A8, symSize: 0x12C }
  - { offset: 0x14CAD, size: 0x8, addend: 0x0, symName: __ZNKSt8__detail15_Hashtable_baseINSt7__cxx1112basic_stringIcSt11char_traitsIcESaIcEEESt4pairIKS6_St14_List_iteratorIS7_IS6_S6_EEENS_10_Select1stESt8equal_toIS6_ESt4hashIS6_ENS_18_Mod_range_hashingENS_20_Default_ranged_hashENS_17_Hashtable_traitsILb1ELb0ELb1EEEE13_M_key_equalsERS8_RKNS_16_Hash_node_valueISC_Lb1EEE, symObjAddr: 0x69FC, symBinAddr: 0x10000713C, symSize: 0x6C }
  - { offset: 0x14D3D, size: 0x8, addend: 0x0, symName: __ZNSt19__ptr_traits_ptr_toIPNSt8__detail15_Hash_node_baseES1_Lb0EE10pointer_toERS1_, symObjAddr: 0x69D4, symBinAddr: 0x100007114, symSize: 0x28 }
  - { offset: 0x14DAC, size: 0x8, addend: 0x0, symName: __ZNSt10_HashtableINSt7__cxx1112basic_stringIcSt11char_traitsIcESaIcEEESt4pairIKS5_St14_List_iteratorIS6_IS5_S5_EEESaISB_ENSt8__detail10_Select1stESt8equal_toIS5_ESt4hashIS5_ENSD_18_Mod_range_hashingENSD_20_Default_ranged_hashENSD_20_Prime_rehash_policyENSD_17_Hashtable_traitsILb1ELb0ELb1EEEE22__small_size_thresholdEv, symObjAddr: 0x69C0, symBinAddr: 0x100007100, symSize: 0x14 }
  - { offset: 0x14DC8, size: 0x8, addend: 0x0, symName: __ZNKSt10_HashtableINSt7__cxx1112basic_stringIcSt11char_traitsIcESaIcEEESt4pairIKS5_St14_List_iteratorIS6_IS5_S5_EEESaISB_ENSt8__detail10_Select1stESt8equal_toIS5_ESt4hashIS5_ENSD_18_Mod_range_hashingENSD_20_Default_ranged_hashENSD_20_Prime_rehash_policyENSD_17_Hashtable_traitsILb1ELb0ELb1EEEE4sizeEv, symObjAddr: 0x69A8, symBinAddr: 0x1000070E8, symSize: 0x18 }
  - { offset: 0x14DF2, size: 0x8, addend: 0x0, symName: __ZNSt8__detail16_Hashtable_allocISaINS_10_Hash_nodeISt4pairIKNSt7__cxx1112basic_stringIcSt11char_traitsIcESaIcEEESt14_List_iteratorIS2_IS8_S8_EEELb1EEEEE21_M_deallocate_bucketsEPPNS_15_Hash_node_baseEm, symObjAddr: 0x6930, symBinAddr: 0x100007070, symSize: 0x78 }
  - { offset: 0x14F02, size: 0x8, addend: 0x0, symName: __ZNKSt10_HashtableINSt7__cxx1112basic_stringIcSt11char_traitsIcESaIcEEESt4pairIKS5_St14_List_iteratorIS6_IS5_S5_EEESaISB_ENSt8__detail10_Select1stESt8equal_toIS5_ESt4hashIS5_ENSD_18_Mod_range_hashingENSD_20_Default_ranged_hashENSD_20_Prime_rehash_policyENSD_17_Hashtable_traitsILb1ELb0ELb1EEEE21_M_uses_single_bucketEPPNSD_15_Hash_node_baseE, symObjAddr: 0x68F4, symBinAddr: 0x100007034, symSize: 0x3C }
  - { offset: 0x14F3D, size: 0x8, addend: 0x0, symName: __ZNSt8__detail16_Hashtable_allocISaINS_10_Hash_nodeISt4pairIKNSt7__cxx1112basic_stringIcSt11char_traitsIcESaIcEEESt14_List_iteratorIS2_IS8_S8_EEELb1EEEEE22_M_deallocate_node_ptrEPSE_, symObjAddr: 0x689C, symBinAddr: 0x100006FDC, symSize: 0x58 }
  - { offset: 0x15002, size: 0x8, addend: 0x0, symName: __ZNSt8__detail16_Hashtable_allocISaINS_10_Hash_nodeISt4pairIKNSt7__cxx1112basic_stringIcSt11char_traitsIcESaIcEEESt14_List_iteratorIS2_IS8_S8_EEELb1EEEEE17_M_node_allocatorEv, symObjAddr: 0x6888, symBinAddr: 0x100006FC8, symSize: 0x14 }
  - { offset: 0x1502C, size: 0x8, addend: 0x0, symName: __ZNSt7__cxx1110_List_baseISt4pairINS_12basic_stringIcSt11char_traitsIcESaIcEEES6_ESaIS7_EE11_M_put_nodeEPSt10_List_nodeIS7_E, symObjAddr: 0x6840, symBinAddr: 0x100006F80, symSize: 0x48 }
  - { offset: 0x150CA, size: 0x8, addend: 0x0, symName: __ZNKSt7__cxx1112basic_stringIcSt11char_traitsIcESaIcEE8_M_limitEmm, symObjAddr: 0x67D4, symBinAddr: 0x100006F14, symSize: 0x6C }
  - { offset: 0x15127, size: 0x8, addend: 0x0, symName: __ZNKSt7__cxx1112basic_stringIcSt11char_traitsIcESaIcEE8_M_checkEmPKc, symObjAddr: 0x675C, symBinAddr: 0x100006E9C, symSize: 0x78 }
  - { offset: 0x15177, size: 0x8, addend: 0x0, symName: __ZNSt7__cxx1112basic_stringIcSt11char_traitsIcESaIcEE10_M_replaceEmmPKcm, symObjAddr: 0x65D0, symBinAddr: 0x100006D10, symSize: 0x18C }
  - { offset: 0x1529E, size: 0x8, addend: 0x0, symName: __ZNSt19__ptr_traits_ptr_toIPKcS0_Lb0EE10pointer_toERS0_, symObjAddr: 0x65A8, symBinAddr: 0x100006CE8, symSize: 0x28 }
  - { offset: 0x15346, size: 0x8, addend: 0x0, symName: __ZSt18uninitialized_copyIN9__gnu_cxx17__normal_iteratorIPKP9CacheNodeSt6vectorIS3_SaIS3_EEEEPS3_ET0_T_SC_SB_, symObjAddr: 0x6510, symBinAddr: 0x100006C50, symSize: 0x98 }
  - { offset: 0x15507, size: 0x8, addend: 0x0, symName: __ZNSt12_Vector_baseIP9CacheNodeSaIS1_EE17_M_create_storageEm, symObjAddr: 0x64B0, symBinAddr: 0x100006BF0, symSize: 0x60 }
  - { offset: 0x15569, size: 0x8, addend: 0x0, symName: __ZNSt12_Vector_baseIP9CacheNodeSaIS1_EE12_Vector_implC1ERKS2_, symObjAddr: 0x6464, symBinAddr: 0x100006BA4, symSize: 0x4C }
  - { offset: 0x15606, size: 0x8, addend: 0x0, symName: __ZNSt7__cxx1112basic_stringIcSt11char_traitsIcESaIcEE6appendEPKcm, symObjAddr: 0x6420, symBinAddr: 0x100006B60, symSize: 0x44 }
  - { offset: 0x1564E, size: 0x8, addend: 0x0, symName: __ZSt8_DestroyIPSt6vectorIP9CacheNodeSaIS2_EEEvT_S6_, symObjAddr: 0x63D0, symBinAddr: 0x100006B10, symSize: 0x50 }
  - { offset: 0x15761, size: 0x8, addend: 0x0, symName: __ZSt18uninitialized_copyIPP9CacheNodeS2_ET0_T_S4_S3_, symObjAddr: 0x6354, symBinAddr: 0x100006A94, symSize: 0x7C }
  - { offset: 0x15889, size: 0x8, addend: 0x0, symName: __ZSt12__miter_baseIPP9CacheNodeET_S3_, symObjAddr: 0x6340, symBinAddr: 0x100006A80, symSize: 0x14 }
  - { offset: 0x158BC, size: 0x8, addend: 0x0, symName: __ZSt8_DestroyIN9__gnu_cxx17__normal_iteratorIPP9CacheNodeSt6vectorIS3_SaIS3_EEEEEvT_S9_, symObjAddr: 0x6328, symBinAddr: 0x100006A68, symSize: 0x18 }
  - { offset: 0x1594C, size: 0x8, addend: 0x0, symName: __ZSt12__miter_baseIN9__gnu_cxx17__normal_iteratorIPKP9CacheNodeSt6vectorIS3_SaIS3_EEEEET_SA_, symObjAddr: 0x6314, symBinAddr: 0x100006A54, symSize: 0x14 }
  - { offset: 0x1597F, size: 0x8, addend: 0x0, symName: __ZSt8_DestroyIPP9CacheNodeEvT_S3_, symObjAddr: 0x62FC, symBinAddr: 0x100006A3C, symSize: 0x18 }
  - { offset: 0x159C5, size: 0x8, addend: 0x0, symName: __ZNSt6vectorIP9CacheNodeSaIS1_EE12_Guard_alloc10_M_releaseEv, symObjAddr: 0x62D4, symBinAddr: 0x100006A14, symSize: 0x28 }
  - { offset: 0x15A56, size: 0x8, addend: 0x0, symName: __ZNSt6vectorIP9CacheNodeSaIS1_EE15_M_erase_at_endEPS1_, symObjAddr: 0x624C, symBinAddr: 0x10000698C, symSize: 0x88 }
  - { offset: 0x15AE7, size: 0x8, addend: 0x0, symName: __ZNSt6vectorIS_IP9CacheNodeSaIS1_EESaIS3_EE11_S_relocateEPS3_S6_S6_RS4_, symObjAddr: 0x6218, symBinAddr: 0x100006958, symSize: 0x34 }
  - { offset: 0x15B62, size: 0x8, addend: 0x0, symName: __ZNSt6vectorIS_IP9CacheNodeSaIS1_EESaIS3_EE12_Guard_allocD1Ev, symObjAddr: 0x61CC, symBinAddr: 0x10000690C, symSize: 0x4C }
  - { offset: 0x15BCC, size: 0x8, addend: 0x0, symName: __ZNSt6vectorIS_IP9CacheNodeSaIS1_EESaIS3_EE12_Guard_allocC1EPS3_mRSt12_Vector_baseIS3_S4_E, symObjAddr: 0x6188, symBinAddr: 0x1000068C8, symSize: 0x44 }
  - { offset: 0x15C0D, size: 0x8, addend: 0x0, symName: __ZNSt12_Vector_baseISt6vectorIP9CacheNodeSaIS2_EESaIS4_EE11_M_allocateEm, symObjAddr: 0x6138, symBinAddr: 0x100006878, symSize: 0x50 }
  - { offset: 0x15C75, size: 0x8, addend: 0x0, symName: __ZNKSt6vectorIS_IP9CacheNodeSaIS1_EESaIS3_EE12_M_check_lenEmPKc, symObjAddr: 0x6068, symBinAddr: 0x1000067A8, symSize: 0xD0 }
  - { offset: 0x15CCE, size: 0x8, addend: 0x0, symName: __ZSt27__uninitialized_default_n_aIPSt6vectorIP9CacheNodeSaIS2_EEmS4_ET_S6_T0_RSaIT1_E, symObjAddr: 0x6040, symBinAddr: 0x100006780, symSize: 0x28 }
  - { offset: 0x15D31, size: 0x8, addend: 0x0, symName: __ZNKSt6vectorIS_IP9CacheNodeSaIS1_EESaIS3_EE8max_sizeEv, symObjAddr: 0x6020, symBinAddr: 0x100006760, symSize: 0x20 }
  - { offset: 0x15D57, size: 0x8, addend: 0x0, symName: __ZNSt6vectorIP9CacheNodeSaIS1_EE11_S_relocateEPS1_S4_S4_RS2_, symObjAddr: 0x5FEC, symBinAddr: 0x10000672C, symSize: 0x34 }
  - { offset: 0x15DF0, size: 0x8, addend: 0x0, symName: __ZNSt6vectorIP9CacheNodeSaIS1_EE12_Guard_allocD1Ev, symObjAddr: 0x5FA0, symBinAddr: 0x1000066E0, symSize: 0x4C }
  - { offset: 0x15E5A, size: 0x8, addend: 0x0, symName: __ZNSt6vectorIP9CacheNodeSaIS1_EE12_Guard_allocC1EPS1_mRSt12_Vector_baseIS1_S2_E, symObjAddr: 0x5F5C, symBinAddr: 0x10000669C, symSize: 0x44 }
  - { offset: 0x15E9B, size: 0x8, addend: 0x0, symName: __ZNSt12_Vector_baseIP9CacheNodeSaIS1_EE11_M_allocateEm, symObjAddr: 0x5F0C, symBinAddr: 0x10000664C, symSize: 0x50 }
  - { offset: 0x15F3F, size: 0x8, addend: 0x0, symName: __ZNKSt6vectorIP9CacheNodeSaIS1_EE12_M_check_lenEmPKc, symObjAddr: 0x5E3C, symBinAddr: 0x10000657C, symSize: 0xD0 }
  - { offset: 0x16006, size: 0x8, addend: 0x0, symName: __ZNSt7__cxx114listISt4pairINS_12basic_stringIcSt11char_traitsIcESaIcEEES6_ESaIS7_EE14_M_create_nodeIJS7_EEEPSt10_List_nodeIS7_EDpOT_, symObjAddr: 0x5D30, symBinAddr: 0x100006470, symSize: 0x10C }
  - { offset: 0x16171, size: 0x8, addend: 0x0, symName: __ZNSt10_HashtableINSt7__cxx1112basic_stringIcSt11char_traitsIcESaIcEEESt4pairIKS5_St14_List_iteratorIS6_IS5_S5_EEESaISB_ENSt8__detail10_Select1stESt8equal_toIS5_ESt4hashIS5_ENSD_18_Mod_range_hashingENSD_20_Default_ranged_hashENSD_20_Prime_rehash_policyENSD_17_Hashtable_traitsILb1ELb0ELb1EEEE8_M_eraseEmPNSD_15_Hash_node_baseEPNSD_10_Hash_nodeISB_Lb1EEE, symObjAddr: 0x5BF0, symBinAddr: 0x100006330, symSize: 0x140 }
  - { offset: 0x16203, size: 0x8, addend: 0x0, symName: __ZNKSt10_HashtableINSt7__cxx1112basic_stringIcSt11char_traitsIcESaIcEEESt4pairIKS5_St14_List_iteratorIS6_IS5_S5_EEESaISB_ENSt8__detail10_Select1stESt8equal_toIS5_ESt4hashIS5_ENSD_18_Mod_range_hashingENSD_20_Default_ranged_hashENSD_20_Prime_rehash_policyENSD_17_Hashtable_traitsILb1ELb0ELb1EEEE15_M_bucket_indexERKNSD_16_Hash_node_valueISB_Lb1EEE, symObjAddr: 0x5BC0, symBinAddr: 0x100006300, symSize: 0x30 }
  - { offset: 0x1623E, size: 0x8, addend: 0x0, symName: __ZNKSt10_HashtableINSt7__cxx1112basic_stringIcSt11char_traitsIcESaIcEEESt4pairIKS5_St14_List_iteratorIS6_IS5_S5_EEESaISB_ENSt8__detail10_Select1stESt8equal_toIS5_ESt4hashIS5_ENSD_18_Mod_range_hashingENSD_20_Default_ranged_hashENSD_20_Prime_rehash_policyENSD_17_Hashtable_traitsILb1ELb0ELb1EEEE15__location_type7_M_nodeEv, symObjAddr: 0x5B8C, symBinAddr: 0x1000062CC, symSize: 0x34 }
  - { offset: 0x16268, size: 0x8, addend: 0x0, symName: __ZNKSt10_HashtableINSt7__cxx1112basic_stringIcSt11char_traitsIcESaIcEEESt4pairIKS5_St14_List_iteratorIS6_IS5_S5_EEESaISB_ENSt8__detail10_Select1stESt8equal_toIS5_ESt4hashIS5_ENSD_18_Mod_range_hashingENSD_20_Default_ranged_hashENSD_20_Prime_rehash_policyENSD_17_Hashtable_traitsILb1ELb0ELb1EEEE15__location_typecvbEv, symObjAddr: 0x5B68, symBinAddr: 0x1000062A8, symSize: 0x24 }
  - { offset: 0x162BB, size: 0x8, addend: 0x0, symName: __ZNSt7__cxx1112basic_stringIcSt11char_traitsIcESaIcEE11_S_allocateERS3_m, symObjAddr: 0x5B24, symBinAddr: 0x100006264, symSize: 0x44 }
  - { offset: 0x1635C, size: 0x8, addend: 0x0, symName: __ZN9__gnu_cxx16__aligned_membufISt4pairINSt7__cxx1112basic_stringIcSt11char_traitsIcESaIcEEES7_EE6_M_ptrEv, symObjAddr: 0x5B08, symBinAddr: 0x100006248, symSize: 0x1C }
  - { offset: 0x16386, size: 0x8, addend: 0x0, symName: __ZNSt7__cxx1110_List_baseISt4pairINS_12basic_stringIcSt11char_traitsIcESaIcEEES6_ESaIS7_EE11_M_dec_sizeEm, symObjAddr: 0x5AD8, symBinAddr: 0x100006218, symSize: 0x30 }
  - { offset: 0x163C1, size: 0x8, addend: 0x0, symName: __ZNSt7__cxx1110_List_baseISt4pairINS_12basic_stringIcSt11char_traitsIcESaIcEEES6_ESaIS7_EE11_M_inc_sizeEm, symObjAddr: 0x5AA8, symBinAddr: 0x1000061E8, symSize: 0x30 }
  - { offset: 0x163FC, size: 0x8, addend: 0x0, symName: __ZNSt7__cxx114listISt4pairINS_12basic_stringIcSt11char_traitsIcESaIcEEES6_ESaIS7_EE11_M_transferESt14_List_iteratorIS7_ESB_SB_, symObjAddr: 0x5A74, symBinAddr: 0x1000061B4, symSize: 0x34 }
  - { offset: 0x16459, size: 0x8, addend: 0x0, symName: __ZNSt7__cxx114listISt4pairINS_12basic_stringIcSt11char_traitsIcESaIcEEES6_ESaIS7_EE25_M_check_equal_allocatorsERKS9_, symObjAddr: 0x5A20, symBinAddr: 0x100006160, symSize: 0x54 }
  - { offset: 0x164E1, size: 0x8, addend: 0x0, symName: __ZSteqRKSt20_List_const_iteratorISt4pairINSt7__cxx1112basic_stringIcSt11char_traitsIcESaIcEEES6_EESA_, symObjAddr: 0x59F0, symBinAddr: 0x100006130, symSize: 0x30 }
  - { offset: 0x16520, size: 0x8, addend: 0x0, symName: __ZNSt14_List_iteratorISt4pairINSt7__cxx1112basic_stringIcSt11char_traitsIcESaIcEEES6_EEppEv, symObjAddr: 0x59C8, symBinAddr: 0x100006108, symSize: 0x28 }
  - { offset: 0x1654A, size: 0x8, addend: 0x0, symName: __ZNKSt20_List_const_iteratorISt4pairINSt7__cxx1112basic_stringIcSt11char_traitsIcESaIcEEES6_EE13_M_const_castEv, symObjAddr: 0x59A0, symBinAddr: 0x1000060E0, symSize: 0x28 }
  - { offset: 0x16574, size: 0x8, addend: 0x0, symName: __ZNKSt8__detail14_Node_iteratorISt4pairIKNSt7__cxx1112basic_stringIcSt11char_traitsIcESaIcEEESt14_List_iteratorIS1_IS7_S7_EEELb0ELb1EEptEv, symObjAddr: 0x5970, symBinAddr: 0x1000060B0, symSize: 0x30 }
  - { offset: 0x165C2, size: 0x8, addend: 0x0, symName: __ZNSt10_HashtableINSt7__cxx1112basic_stringIcSt11char_traitsIcESaIcEEESt4pairIKS5_St14_List_iteratorIS6_IS5_S5_EEESaISB_ENSt8__detail10_Select1stESt8equal_toIS5_ESt4hashIS5_ENSD_18_Mod_range_hashingENSD_20_Default_ranged_hashENSD_20_Prime_rehash_policyENSD_17_Hashtable_traitsILb1ELb0ELb1EEEE21_M_insert_unique_nodeEmmPNSD_10_Hash_nodeISB_Lb1EEEm, symObjAddr: 0x5860, symBinAddr: 0x100005FA0, symSize: 0x110 }
  - { offset: 0x1666F, size: 0x8, addend: 0x0, symName: __ZNSt10_HashtableINSt7__cxx1112basic_stringIcSt11char_traitsIcESaIcEEESt4pairIKS5_St14_List_iteratorIS6_IS5_S5_EEESaISB_ENSt8__detail10_Select1stESt8equal_toIS5_ESt4hashIS5_ENSD_18_Mod_range_hashingENSD_20_Default_ranged_hashENSD_20_Prime_rehash_policyENSD_17_Hashtable_traitsILb1ELb0ELb1EEEE12_Scoped_nodeD1Ev, symObjAddr: 0x581C, symBinAddr: 0x100005F5C, symSize: 0x44 }
  - { offset: 0x166EC, size: 0x8, addend: 0x0, symName: __ZNSt10_HashtableINSt7__cxx1112basic_stringIcSt11char_traitsIcESaIcEEESt4pairIKS5_St14_List_iteratorIS6_IS5_S5_EEESaISB_ENSt8__detail10_Select1stESt8equal_toIS5_ESt4hashIS5_ENSD_18_Mod_range_hashingENSD_20_Default_ranged_hashENSD_20_Prime_rehash_policyENSD_17_Hashtable_traitsILb1ELb0ELb1EEEE12_Scoped_nodeC1IJRKSt21piecewise_construct_tSt5tupleIJRS7_EESU_IJEEEEEPNSD_16_Hashtable_allocISaINSD_10_Hash_nodeISB_Lb1EEEEEEDpOT_, symObjAddr: 0x57B0, symBinAddr: 0x100005EF0, symSize: 0x6C }
  - { offset: 0x167F5, size: 0x8, addend: 0x0, symName: __ZNSt5tupleIJRKNSt7__cxx1112basic_stringIcSt11char_traitsIcESaIcEEEEEC1ILb1ELb1EEES7_, symObjAddr: 0x5788, symBinAddr: 0x100005EC8, symSize: 0x28 }
  - { offset: 0x16844, size: 0x8, addend: 0x0, symName: __ZNKSt10_HashtableINSt7__cxx1112basic_stringIcSt11char_traitsIcESaIcEEESt4pairIKS5_St14_List_iteratorIS6_IS5_S5_EEESaISB_ENSt8__detail10_Select1stESt8equal_toIS5_ESt4hashIS5_ENSD_18_Mod_range_hashingENSD_20_Default_ranged_hashENSD_20_Prime_rehash_policyENSD_17_Hashtable_traitsILb1ELb0ELb1EEEE12_M_find_nodeEmRS7_m, symObjAddr: 0x5734, symBinAddr: 0x100005E74, symSize: 0x54 }
  - { offset: 0x168C5, size: 0x8, addend: 0x0, symName: __ZNKSt10_HashtableINSt7__cxx1112basic_stringIcSt11char_traitsIcESaIcEEESt4pairIKS5_St14_List_iteratorIS6_IS5_S5_EEESaISB_ENSt8__detail10_Select1stESt8equal_toIS5_ESt4hashIS5_ENSD_18_Mod_range_hashingENSD_20_Default_ranged_hashENSD_20_Prime_rehash_policyENSD_17_Hashtable_traitsILb1ELb0ELb1EEEE15_M_bucket_indexEm, symObjAddr: 0x5704, symBinAddr: 0x100005E44, symSize: 0x30 }
  - { offset: 0x16900, size: 0x8, addend: 0x0, symName: __ZNKSt8__detail15_Hash_code_baseINSt7__cxx1112basic_stringIcSt11char_traitsIcESaIcEEESt4pairIKS6_St14_List_iteratorIS7_IS6_S6_EEENS_10_Select1stESt4hashIS6_ENS_18_Mod_range_hashingENS_20_Default_ranged_hashELb1EE12_M_hash_codeERS8_, symObjAddr: 0x56E0, symBinAddr: 0x100005E20, symSize: 0x24 }
  - { offset: 0x16963, size: 0x8, addend: 0x0, symName: __ZNSt8__detail14_Node_iteratorISt4pairIKNSt7__cxx1112basic_stringIcSt11char_traitsIcESaIcEEESt14_List_iteratorIS1_IS7_S7_EEELb0ELb1EEC1EPNS_10_Hash_nodeISC_Lb1EEE, symObjAddr: 0x56B8, symBinAddr: 0x100005DF8, symSize: 0x28 }
  - { offset: 0x16992, size: 0x8, addend: 0x0, symName: __ZNKSt10_HashtableINSt7__cxx1112basic_stringIcSt11char_traitsIcESaIcEEESt4pairIKS5_St14_List_iteratorIS6_IS5_S5_EEESaISB_ENSt8__detail10_Select1stESt8equal_toIS5_ESt4hashIS5_ENSD_18_Mod_range_hashingENSD_20_Default_ranged_hashENSD_20_Prime_rehash_policyENSD_17_Hashtable_traitsILb1ELb0ELb1EEEE15__location_typecvNSD_14_Node_iteratorISB_Lb0ELb1EEEEv, symObjAddr: 0x568C, symBinAddr: 0x100005DCC, symSize: 0x2C }
  - { offset: 0x169BC, size: 0x8, addend: 0x0, symName: __ZNKSt10_HashtableINSt7__cxx1112basic_stringIcSt11char_traitsIcESaIcEEESt4pairIKS5_St14_List_iteratorIS6_IS5_S5_EEESaISB_ENSt8__detail10_Select1stESt8equal_toIS5_ESt4hashIS5_ENSD_18_Mod_range_hashingENSD_20_Default_ranged_hashENSD_20_Prime_rehash_policyENSD_17_Hashtable_traitsILb1ELb0ELb1EEEE9_M_locateERS7_, symObjAddr: 0x5554, symBinAddr: 0x100005C94, symSize: 0x138 }
  - { offset: 0x16A19, size: 0x8, addend: 0x0, symName: __ZNSt10_HashtableINSt7__cxx1112basic_stringIcSt11char_traitsIcESaIcEEESt4pairIKS5_St14_List_iteratorIS6_IS5_S5_EEESaISB_ENSt8__detail10_Select1stESt8equal_toIS5_ESt4hashIS5_ENSD_18_Mod_range_hashingENSD_20_Default_ranged_hashENSD_20_Prime_rehash_policyENSD_17_Hashtable_traitsILb1ELb0ELb1EEEE21_M_deallocate_bucketsEPPNSD_15_Hash_node_baseEm, symObjAddr: 0x5508, symBinAddr: 0x100005C48, symSize: 0x4C }
  - { offset: 0x16A65, size: 0x8, addend: 0x0, symName: __ZNSt8__detail16_Hashtable_allocISaINS_10_Hash_nodeISt4pairIKNSt7__cxx1112basic_stringIcSt11char_traitsIcESaIcEEESt14_List_iteratorIS2_IS8_S8_EEELb1EEEEE18_M_deallocate_nodeEPSE_, symObjAddr: 0x548C, symBinAddr: 0x100005BCC, symSize: 0x7C }
  - { offset: 0x16B1E, size: 0x8, addend: 0x0, symName: __ZNKSt8__detail10_Hash_nodeISt4pairIKNSt7__cxx1112basic_stringIcSt11char_traitsIcESaIcEEESt14_List_iteratorIS1_IS7_S7_EEELb1EE7_M_nextEv, symObjAddr: 0x5474, symBinAddr: 0x100005BB4, symSize: 0x18 }
  - { offset: 0x16B48, size: 0x8, addend: 0x0, symName: __ZNSt10_List_nodeISt4pairINSt7__cxx1112basic_stringIcSt11char_traitsIcESaIcEEES6_EE11_M_node_ptrEv, symObjAddr: 0x5460, symBinAddr: 0x100005BA0, symSize: 0x14 }
  - { offset: 0x16B72, size: 0x8, addend: 0x0, symName: __ZNSt7__cxx1110_List_baseISt4pairINS_12basic_stringIcSt11char_traitsIcESaIcEEES6_ESaIS7_EE15_M_destroy_nodeEPSt10_List_nodeIS7_E, symObjAddr: 0x53FC, symBinAddr: 0x100005B3C, symSize: 0x64 }
  - { offset: 0x16C1D, size: 0x8, addend: 0x0, symName: __ZNSt7__cxx1112basic_stringIcSt11char_traitsIcESaIcEE7replaceEmmPKcm, symObjAddr: 0x5390, symBinAddr: 0x100005AD0, symSize: 0x6C }
  - { offset: 0x16C87, size: 0x8, addend: 0x0, symName: __ZNSt7__cxx1112basic_stringIcSt11char_traitsIcESaIcEE13_S_copy_charsIPKcEEvPcT_S9_, symObjAddr: 0x5348, symBinAddr: 0x100005A88, symSize: 0x48 }
  - { offset: 0x16D04, size: 0x8, addend: 0x0, symName: __ZNKSt7__cxx1112basic_stringIcSt11char_traitsIcESaIcEE8max_sizeEv, symObjAddr: 0x52EC, symBinAddr: 0x100005A2C, symSize: 0x5C }
  - { offset: 0x16DE6, size: 0x8, addend: 0x0, symName: __ZNKSt7__cxx1112basic_stringIcSt11char_traitsIcESaIcEE13_M_local_dataEv, symObjAddr: 0x52CC, symBinAddr: 0x100005A0C, symSize: 0x20 }
  - { offset: 0x16E13, size: 0x8, addend: 0x0, symName: __ZNSt7__cxx1112basic_stringIcSt11char_traitsIcESaIcEE9_M_createERmm, symObjAddr: 0x51D8, symBinAddr: 0x100005918, symSize: 0xF4 }
  - { offset: 0x16E7C, size: 0x8, addend: 0x0, symName: __ZNSt19__ptr_traits_ptr_toIPccLb0EE10pointer_toERc, symObjAddr: 0x51B0, symBinAddr: 0x1000058F0, symSize: 0x28 }
  - { offset: 0x16EEB, size: 0x8, addend: 0x0, symName: __ZSt22__uninitialized_copy_aIN9__gnu_cxx17__normal_iteratorIPKP9CacheNodeSt6vectorIS3_SaIS3_EEEES9_PS3_S3_ET1_T_T0_SB_RSaIT2_E, symObjAddr: 0x5180, symBinAddr: 0x1000058C0, symSize: 0x30 }
  - { offset: 0x16F9E, size: 0x8, addend: 0x0, symName: __ZNSt12_Vector_baseIP9CacheNodeSaIS1_EEC2EmRKS2_, symObjAddr: 0x512C, symBinAddr: 0x10000586C, symSize: 0x54 }
  - { offset: 0x16FEB, size: 0x8, addend: 0x0, symName: __ZNSt7__cxx1112basic_stringIcSt11char_traitsIcESaIcEE6appendERKS4_, symObjAddr: 0x50E8, symBinAddr: 0x100005828, symSize: 0x44 }
  - { offset: 0x17026, size: 0x8, addend: 0x0, symName: __ZNKSt7__cxx1112basic_stringIcSt11char_traitsIcESaIcEE8capacityEv, symObjAddr: 0x5064, symBinAddr: 0x1000057A4, symSize: 0x84 }
  - { offset: 0x1709C, size: 0x8, addend: 0x0, symName: __ZNSt12_Vector_baseISt6vectorIP9CacheNodeSaIS2_EESaIS4_EE19_M_get_Tp_allocatorEv, symObjAddr: 0x5050, symBinAddr: 0x100005790, symSize: 0x14 }
  - { offset: 0x170C6, size: 0x8, addend: 0x0, symName: __ZNSt12_Vector_baseISt6vectorIP9CacheNodeSaIS2_EESaIS4_EE13_M_deallocateEPS4_m, symObjAddr: 0x4FF8, symBinAddr: 0x100005738, symSize: 0x58 }
  - { offset: 0x17162, size: 0x8, addend: 0x0, symName: __ZNSt15__new_allocatorISt6vectorIP9CacheNodeSaIS2_EEED2Ev, symObjAddr: 0x4FE4, symBinAddr: 0x100005724, symSize: 0x14 }
  - { offset: 0x171A2, size: 0x8, addend: 0x0, symName: __ZNSt12_Vector_baseISt6vectorIP9CacheNodeSaIS2_EESaIS4_EE17_Vector_impl_dataC2Ev, symObjAddr: 0x4FB8, symBinAddr: 0x1000056F8, symSize: 0x2C }
  - { offset: 0x171F8, size: 0x8, addend: 0x0, symName: __ZNSt15__new_allocatorIP9CacheNodeED2Ev, symObjAddr: 0x4FA4, symBinAddr: 0x1000056E4, symSize: 0x14 }
  - { offset: 0x17238, size: 0x8, addend: 0x0, symName: __ZNSt12_Vector_baseIP9CacheNodeSaIS1_EE17_Vector_impl_dataC2Ev, symObjAddr: 0x4F78, symBinAddr: 0x1000056B8, symSize: 0x2C }
  - { offset: 0x17274, size: 0x8, addend: 0x0, symName: __ZNSt7__cxx1112basic_stringIcSt11char_traitsIcESaIcEE5clearEv, symObjAddr: 0x4F54, symBinAddr: 0x100005694, symSize: 0x24 }
  - { offset: 0x172A2, size: 0x8, addend: 0x0, symName: __ZNSt7__cxx1112basic_stringIcSt11char_traitsIcESaIcEE9_M_assignERKS4_, symObjAddr: 0x4E60, symBinAddr: 0x1000055A0, symSize: 0xF4 }
  - { offset: 0x17367, size: 0x8, addend: 0x0, symName: __ZNSt7__cxx1112basic_stringIcSt11char_traitsIcESaIcEE7_S_copyEPcPKcm, symObjAddr: 0x4E14, symBinAddr: 0x100005554, symSize: 0x4C }
  - { offset: 0x17402, size: 0x8, addend: 0x0, symName: __ZNSt7__cxx1112basic_stringIcSt11char_traitsIcESaIcEE10_M_destroyEm, symObjAddr: 0x4DB0, symBinAddr: 0x1000054F0, symSize: 0x64 }
  - { offset: 0x1746F, size: 0x8, addend: 0x0, symName: __ZSteqIcSt11char_traitsIcESaIcEEbRKNSt7__cxx1112basic_stringIT_T0_T1_EEPKS5_, symObjAddr: 0x4D3C, symBinAddr: 0x10000547C, symSize: 0x74 }
  - { offset: 0x174E9, size: 0x8, addend: 0x0, symName: __ZSt22__uninitialized_copy_aIPP9CacheNodeS2_S2_S1_ET1_T_T0_S3_RSaIT2_E, symObjAddr: 0x4D0C, symBinAddr: 0x10000544C, symSize: 0x30 }
  - { offset: 0x17562, size: 0x8, addend: 0x0, symName: __ZSt4copyIPP9CacheNodeS2_ET0_T_S4_S3_, symObjAddr: 0x4C74, symBinAddr: 0x1000053B4, symSize: 0x98 }
  - { offset: 0x17702, size: 0x8, addend: 0x0, symName: __ZSt4copyIN9__gnu_cxx17__normal_iteratorIPKP9CacheNodeSt6vectorIS3_SaIS3_EEEENS1_IPS3_S8_EEET0_T_SD_SC_, symObjAddr: 0x4BCC, symBinAddr: 0x10000530C, symSize: 0xA8 }
  - { offset: 0x178DE, size: 0x8, addend: 0x0, symName: __ZNSt6vectorIP9CacheNodeSaIS1_EE20_M_allocate_and_copyIN9__gnu_cxx17__normal_iteratorIPKS1_S3_EEEEPS1_mT_SB_, symObjAddr: 0x4B28, symBinAddr: 0x100005268, symSize: 0xA4 }
  - { offset: 0x17955, size: 0x8, addend: 0x0, symName: __ZNKSt6vectorIP9CacheNodeSaIS1_EE3endEv, symObjAddr: 0x4AF8, symBinAddr: 0x100005238, symSize: 0x30 }
  - { offset: 0x179A9, size: 0x8, addend: 0x0, symName: __ZNKSt6vectorIP9CacheNodeSaIS1_EE5beginEv, symObjAddr: 0x4ACC, symBinAddr: 0x10000520C, symSize: 0x2C }
  - { offset: 0x179FD, size: 0x8, addend: 0x0, symName: __ZNKSt6vectorIP9CacheNodeSaIS1_EE8capacityEv, symObjAddr: 0x4A8C, symBinAddr: 0x1000051CC, symSize: 0x40 }
  - { offset: 0x17A65, size: 0x8, addend: 0x0, symName: __ZNSt12_Vector_baseIP9CacheNodeSaIS1_EE13_M_deallocateEPS1_m, symObjAddr: 0x4A34, symBinAddr: 0x100005174, symSize: 0x58 }
  - { offset: 0x17AE7, size: 0x8, addend: 0x0, symName: __ZNSt6vectorIP9CacheNodeSaIS1_EE5clearEv, symObjAddr: 0x4A08, symBinAddr: 0x100005148, symSize: 0x2C }
  - { offset: 0x17B23, size: 0x8, addend: 0x0, symName: __ZNKSt12_Vector_baseIP9CacheNodeSaIS1_EE19_M_get_Tp_allocatorEv, symObjAddr: 0x49F4, symBinAddr: 0x100005134, symSize: 0x14 }
  - { offset: 0x17B4D, size: 0x8, addend: 0x0, symName: __ZNSt12_Vector_baseIP9CacheNodeSaIS1_EE19_M_get_Tp_allocatorEv, symObjAddr: 0x49E0, symBinAddr: 0x100005120, symSize: 0x14 }
  - { offset: 0x17B95, size: 0x8, addend: 0x0, symName: __ZNSt6vectorIS_IP9CacheNodeSaIS1_EESaIS3_EE15_M_erase_at_endEPS3_, symObjAddr: 0x494C, symBinAddr: 0x10000508C, symSize: 0x94 }
  - { offset: 0x17C2A, size: 0x8, addend: 0x0, symName: __ZNSt6vectorIS_IP9CacheNodeSaIS1_EESaIS3_EE17_M_default_appendEm, symObjAddr: 0x46E4, symBinAddr: 0x100004E24, symSize: 0x268 }
  - { offset: 0x17CF4, size: 0x8, addend: 0x0, symName: __ZNSt6vectorIP9CacheNodeSaIS1_EE17_M_realloc_appendIJRKS1_EEEvDpOT_, symObjAddr: 0x44F0, symBinAddr: 0x100004C30, symSize: 0x1F4 }
  - { offset: 0x17F86, size: 0x8, addend: 0x0, symName: __ZNSt7__cxx114listISt4pairINS_12basic_stringIcSt11char_traitsIcESaIcEEES6_ESaIS7_EE9_M_insertIJS7_EEEvSt14_List_iteratorIS7_EDpOT_, symObjAddr: 0x449C, symBinAddr: 0x100004BDC, symSize: 0x54 }
  - { offset: 0x18039, size: 0x8, addend: 0x0, symName: __ZNSt7__cxx114listISt4pairINS_12basic_stringIcSt11char_traitsIcESaIcEEES6_ESaIS7_EE8_M_eraseESt14_List_iteratorIS7_E, symObjAddr: 0x4444, symBinAddr: 0x100004B84, symSize: 0x58 }
  - { offset: 0x18098, size: 0x8, addend: 0x0, symName: __ZNSt10_HashtableINSt7__cxx1112basic_stringIcSt11char_traitsIcESaIcEEESt4pairIKS5_St14_List_iteratorIS6_IS5_S5_EEESaISB_ENSt8__detail10_Select1stESt8equal_toIS5_ESt4hashIS5_ENSD_18_Mod_range_hashingENSD_20_Default_ranged_hashENSD_20_Prime_rehash_policyENSD_17_Hashtable_traitsILb1ELb0ELb1EEEE5eraseERS7_, symObjAddr: 0x439C, symBinAddr: 0x100004ADC, symSize: 0xA8 }
  - { offset: 0x18117, size: 0x8, addend: 0x0, symName: __ZNKSt14_List_iteratorISt4pairINSt7__cxx1112basic_stringIcSt11char_traitsIcESaIcEEES6_EEdeEv, symObjAddr: 0x437C, symBinAddr: 0x100004ABC, symSize: 0x20 }
  - { offset: 0x18141, size: 0x8, addend: 0x0, symName: __ZNSt14_List_iteratorISt4pairINSt7__cxx1112basic_stringIcSt11char_traitsIcESaIcEEES6_EEmmEv, symObjAddr: 0x4354, symBinAddr: 0x100004A94, symSize: 0x28 }
  - { offset: 0x1816B, size: 0x8, addend: 0x0, symName: __ZNSt7__cxx114listISt4pairINS_12basic_stringIcSt11char_traitsIcESaIcEEES6_ESaIS7_EE3endEv, symObjAddr: 0x4328, symBinAddr: 0x100004A68, symSize: 0x2C }
  - { offset: 0x18195, size: 0x8, addend: 0x0, symName: __ZNKSt7__cxx114listISt4pairINS_12basic_stringIcSt11char_traitsIcESaIcEEES6_ESaIS7_EE5emptyEv, symObjAddr: 0x42F0, symBinAddr: 0x100004A30, symSize: 0x38 }
  - { offset: 0x181BF, size: 0x8, addend: 0x0, symName: __ZNKSt7__cxx1110_List_baseISt4pairINS_12basic_stringIcSt11char_traitsIcESaIcEEES6_ESaIS7_EE11_M_get_sizeEv, symObjAddr: 0x42D8, symBinAddr: 0x100004A18, symSize: 0x18 }
  - { offset: 0x181E9, size: 0x8, addend: 0x0, symName: __ZNSt7__cxx1112basic_stringIcSt11char_traitsIcESaIcEE6assignERKS4_, symObjAddr: 0x40F8, symBinAddr: 0x100004838, symSize: 0x1E0 }
  - { offset: 0x183B4, size: 0x8, addend: 0x0, symName: __ZNSt11unique_lockISt12shared_mutexE6unlockEv, symObjAddr: 0x4098, symBinAddr: 0x1000047D8, symSize: 0x60 }
  - { offset: 0x183DE, size: 0x8, addend: 0x0, symName: __ZNSt11unique_lockISt12shared_mutexE4lockEv, symObjAddr: 0x4034, symBinAddr: 0x100004774, symSize: 0x64 }
  - { offset: 0x18408, size: 0x8, addend: 0x0, symName: __ZNSt7__cxx1112basic_stringIcSt11char_traitsIcESaIcEE12_M_constructILb1EEEvPKcm, symObjAddr: 0x3F94, symBinAddr: 0x1000046D4, symSize: 0xA0 }
  - { offset: 0x18497, size: 0x8, addend: 0x0, symName: __ZNKSt7__cxx1112basic_stringIcSt11char_traitsIcESaIcEE16_M_get_allocatorEv, symObjAddr: 0x3F80, symBinAddr: 0x1000046C0, symSize: 0x14 }
  - { offset: 0x184C1, size: 0x8, addend: 0x0, symName: __ZNSt10_List_nodeISt4pairINSt7__cxx1112basic_stringIcSt11char_traitsIcESaIcEEES6_EE9_M_valptrEv, symObjAddr: 0x3F60, symBinAddr: 0x1000046A0, symSize: 0x20 }
  - { offset: 0x184EB, size: 0x8, addend: 0x0, symName: __ZNSt7__cxx114listISt4pairINS_12basic_stringIcSt11char_traitsIcESaIcEEES6_ESaIS7_EE6spliceESt20_List_const_iteratorIS7_EOS9_SB_, symObjAddr: 0x3E54, symBinAddr: 0x100004594, symSize: 0x10C }
  - { offset: 0x185A1, size: 0x8, addend: 0x0, symName: __ZNSt8__detail9_Map_baseINSt7__cxx1112basic_stringIcSt11char_traitsIcESaIcEEESt4pairIKS6_St14_List_iteratorIS7_IS6_S6_EEESaISC_ENS_10_Select1stESt8equal_toIS6_ESt4hashIS6_ENS_18_Mod_range_hashingENS_20_Default_ranged_hashENS_20_Prime_rehash_policyENS_17_Hashtable_traitsILb1ELb0ELb1EEELb1EEixERS8_, symObjAddr: 0x3D34, symBinAddr: 0x100004474, symSize: 0x120 }
  - { offset: 0x186CF, size: 0x8, addend: 0x0, symName: __ZNSt14_List_iteratorISt4pairINSt7__cxx1112basic_stringIcSt11char_traitsIcESaIcEEES6_EEC1EPNSt8__detail15_List_node_baseE, symObjAddr: 0x3D10, symBinAddr: 0x100004450, symSize: 0x24 }
  - { offset: 0x18700, size: 0x8, addend: 0x0, symName: __ZNSt8__detaileqERKNS_19_Node_iterator_baseISt4pairIKNSt7__cxx1112basic_stringIcSt11char_traitsIcESaIcEEESt14_List_iteratorIS1_IS7_S7_EEELb1EEESF_, symObjAddr: 0x3CE0, symBinAddr: 0x100004420, symSize: 0x30 }
  - { offset: 0x1873F, size: 0x8, addend: 0x0, symName: __ZNSt10_HashtableINSt7__cxx1112basic_stringIcSt11char_traitsIcESaIcEEESt4pairIKS5_St14_List_iteratorIS6_IS5_S5_EEESaISB_ENSt8__detail10_Select1stESt8equal_toIS5_ESt4hashIS5_ENSD_18_Mod_range_hashingENSD_20_Default_ranged_hashENSD_20_Prime_rehash_policyENSD_17_Hashtable_traitsILb1ELb0ELb1EEEE3endEv, symObjAddr: 0x3CBC, symBinAddr: 0x1000043FC, symSize: 0x24 }
  - { offset: 0x18769, size: 0x8, addend: 0x0, symName: __ZNSt10_HashtableINSt7__cxx1112basic_stringIcSt11char_traitsIcESaIcEEESt4pairIKS5_St14_List_iteratorIS6_IS5_S5_EEESaISB_ENSt8__detail10_Select1stESt8equal_toIS5_ESt4hashIS5_ENSD_18_Mod_range_hashingENSD_20_Default_ranged_hashENSD_20_Prime_rehash_policyENSD_17_Hashtable_traitsILb1ELb0ELb1EEEE4findERS7_, symObjAddr: 0x3C88, symBinAddr: 0x1000043C8, symSize: 0x34 }
  - { offset: 0x187C2, size: 0x8, addend: 0x0, symName: __ZNSt10_HashtableINSt7__cxx1112basic_stringIcSt11char_traitsIcESaIcEEESt4pairIKS5_St14_List_iteratorIS6_IS5_S5_EEESaISB_ENSt8__detail10_Select1stESt8equal_toIS5_ESt4hashIS5_ENSD_18_Mod_range_hashingENSD_20_Default_ranged_hashENSD_20_Prime_rehash_policyENSD_17_Hashtable_traitsILb1ELb0ELb1EEEE21_M_deallocate_bucketsEv, symObjAddr: 0x3C54, symBinAddr: 0x100004394, symSize: 0x34 }
  - { offset: 0x187EC, size: 0x8, addend: 0x0, symName: __ZNKSt10_HashtableINSt7__cxx1112basic_stringIcSt11char_traitsIcESaIcEEESt4pairIKS5_St14_List_iteratorIS6_IS5_S5_EEESaISB_ENSt8__detail10_Select1stESt8equal_toIS5_ESt4hashIS5_ENSD_18_Mod_range_hashingENSD_20_Default_ranged_hashENSD_20_Prime_rehash_policyENSD_17_Hashtable_traitsILb1ELb0ELb1EEEE8_M_beginEv, symObjAddr: 0x3C3C, symBinAddr: 0x10000437C, symSize: 0x18 }
  - { offset: 0x18842, size: 0x8, addend: 0x0, symName: __ZNSt7__cxx1112basic_stringIcSt11char_traitsIcESaIcEE6insertEmRKS4_, symObjAddr: 0x3BEC, symBinAddr: 0x10000432C, symSize: 0x50 }
  - { offset: 0x188B2, size: 0x8, addend: 0x0, symName: __ZNSt7__cxx1112basic_stringIcSt11char_traitsIcESaIcEE6insertEmPKc, symObjAddr: 0x3BB0, symBinAddr: 0x1000042F0, symSize: 0x3C }
  - { offset: 0x188FE, size: 0x8, addend: 0x0, symName: __ZNSt7__cxx1112basic_stringIcSt11char_traitsIcESaIcEE12_M_constructIPKcEEvT_S8_St20forward_iterator_tag, symObjAddr: 0x3AD0, symBinAddr: 0x100004210, symSize: 0xE0 }
  - { offset: 0x189FC, size: 0x8, addend: 0x0, symName: __ZZNSt7__cxx1112basic_stringIcSt11char_traitsIcESaIcEE12_M_constructIPKcEEvT_S8_St20forward_iterator_tagEN6_GuardC1EPS4_, symObjAddr: 0x3A78, symBinAddr: 0x1000041B8, symSize: 0x24 }
  - { offset: 0x18A2F, size: 0x8, addend: 0x0, symName: __ZZNSt7__cxx1112basic_stringIcSt11char_traitsIcESaIcEE12_M_constructIPKcEEvT_S8_St20forward_iterator_tagEN6_GuardD1Ev, symObjAddr: 0x3A9C, symBinAddr: 0x1000041DC, symSize: 0x34 }
  - { offset: 0x18B3F, size: 0x8, addend: 0x0, symName: __ZNSt7__cxx1112basic_stringIcSt11char_traitsIcESaIcEE12_Alloc_hiderC1EPcRKS3_, symObjAddr: 0x3A28, symBinAddr: 0x100004168, symSize: 0x50 }
  - { offset: 0x18BE9, size: 0x8, addend: 0x0, symName: __ZNSt15__new_allocatorIcED2Ev, symObjAddr: 0x3A14, symBinAddr: 0x100004154, symSize: 0x14 }
  - { offset: 0x18C25, size: 0x8, addend: 0x0, symName: __ZNKSt7__cxx1112basic_stringIcSt11char_traitsIcESaIcEE4sizeEv, symObjAddr: 0x39C4, symBinAddr: 0x100004104, symSize: 0x50 }
  - { offset: 0x18C60, size: 0x8, addend: 0x0, symName: __ZNKSt7__cxx1112basic_stringIcSt11char_traitsIcESaIcEE4dataEv, symObjAddr: 0x39A8, symBinAddr: 0x1000040E8, symSize: 0x1C }
  - { offset: 0x18CB6, size: 0x8, addend: 0x0, symName: __ZNSt7__cxx1112basic_stringIcSt11char_traitsIcESaIcEE9_M_lengthEm, symObjAddr: 0x3984, symBinAddr: 0x1000040C4, symSize: 0x24 }
  - { offset: 0x18CF0, size: 0x8, addend: 0x0, symName: __ZNSt7__cxx1112basic_stringIcSt11char_traitsIcESaIcEE11_M_capacityEm, symObjAddr: 0x3960, symBinAddr: 0x1000040A0, symSize: 0x24 }
  - { offset: 0x18D2B, size: 0x8, addend: 0x0, symName: __ZNSt7__cxx1112basic_stringIcSt11char_traitsIcESaIcEE7_M_dataEPc, symObjAddr: 0x393C, symBinAddr: 0x10000407C, symSize: 0x24 }
  - { offset: 0x18D65, size: 0x8, addend: 0x0, symName: __ZNKSt7__cxx1112basic_stringIcSt11char_traitsIcESaIcEE6lengthEv, symObjAddr: 0x3920, symBinAddr: 0x100004060, symSize: 0x1C }
  - { offset: 0x18D8F, size: 0x8, addend: 0x0, symName: __ZNKSt7__cxx1112basic_stringIcSt11char_traitsIcESaIcEE11_M_is_localEv, symObjAddr: 0x38B8, symBinAddr: 0x100003FF8, symSize: 0x68 }
  - { offset: 0x18DDD, size: 0x8, addend: 0x0, symName: __ZNSt7__cxx1112basic_stringIcSt11char_traitsIcESaIcEE16_M_get_allocatorEv, symObjAddr: 0x38A4, symBinAddr: 0x100003FE4, symSize: 0x14 }
  - { offset: 0x18E2F, size: 0x8, addend: 0x0, symName: __ZNSt7__cxx1112basic_stringIcSt11char_traitsIcESaIcEE7reserveEm, symObjAddr: 0x37FC, symBinAddr: 0x100003F3C, symSize: 0xA8 }
  - { offset: 0x18E8C, size: 0x8, addend: 0x0, symName: __ZNSt7__cxx1112basic_stringIcSt11char_traitsIcESaIcEE10_M_disposeEv, symObjAddr: 0x37B4, symBinAddr: 0x100003EF4, symSize: 0x48 }
  - { offset: 0x18EB6, size: 0x8, addend: 0x0, symName: __ZNSt7__cxx1112basic_stringIcSt11char_traitsIcESaIcEE13_M_set_lengthEm, symObjAddr: 0x376C, symBinAddr: 0x100003EAC, symSize: 0x48 }
  - { offset: 0x18F3B, size: 0x8, addend: 0x0, symName: __ZNSt7__cxx1112basic_stringIcSt11char_traitsIcESaIcEE12_Alloc_hiderC1EPcOS3_, symObjAddr: 0x3714, symBinAddr: 0x100003E54, symSize: 0x58 }
  - { offset: 0x18FEF, size: 0x8, addend: 0x0, symName: __ZNSt7__cxx1112basic_stringIcSt11char_traitsIcESaIcEE13_M_local_dataEv, symObjAddr: 0x36F4, symBinAddr: 0x100003E34, symSize: 0x20 }
  - { offset: 0x19019, size: 0x8, addend: 0x0, symName: __ZNKSt7__cxx1112basic_stringIcSt11char_traitsIcESaIcEE7_M_dataEv, symObjAddr: 0x36DC, symBinAddr: 0x100003E1C, symSize: 0x18 }
  - { offset: 0x1903F, size: 0x8, addend: 0x0, symName: __ZN9__gnu_cxx11char_traitsIcE2eqERKcS3_, symObjAddr: 0x36AC, symBinAddr: 0x100003DEC, symSize: 0x30 }
  - { offset: 0x190A4, size: 0x8, addend: 0x0, symName: __ZNSt6vectorIP9CacheNodeSaIS1_EEC1ERKS3_, symObjAddr: 0x3598, symBinAddr: 0x100003CD8, symSize: 0x114 }
  - { offset: 0x191B3, size: 0x8, addend: 0x0, symName: __ZStplIcSt11char_traitsIcESaIcEENSt7__cxx1112basic_stringIT_T0_T1_EEOS8_S9_, symObjAddr: 0x34A8, symBinAddr: 0x100003BE8, symSize: 0xF0 }
  - { offset: 0x192A4, size: 0x8, addend: 0x0, symName: __ZNSt6vectorIS_IP9CacheNodeSaIS1_EESaIS3_EED1Ev, symObjAddr: 0x344C, symBinAddr: 0x100003B8C, symSize: 0x5C }
  - { offset: 0x1931A, size: 0x8, addend: 0x0, symName: __ZNSt12_Vector_baseISt6vectorIP9CacheNodeSaIS2_EESaIS4_EED2Ev, symObjAddr: 0x33F0, symBinAddr: 0x100003B30, symSize: 0x5C }
  - { offset: 0x19370, size: 0x8, addend: 0x0, symName: __ZNSt12_Vector_baseISt6vectorIP9CacheNodeSaIS2_EESaIS4_EE12_Vector_implC1Ev, symObjAddr: 0x33B8, symBinAddr: 0x100003AF8, symSize: 0x38 }
  - { offset: 0x193F6, size: 0x8, addend: 0x0, symName: __ZNSt6vectorIP9CacheNodeSaIS1_EED1Ev, symObjAddr: 0x335C, symBinAddr: 0x100003A9C, symSize: 0x5C }
  - { offset: 0x1946C, size: 0x8, addend: 0x0, symName: __ZNSt12_Vector_baseIP9CacheNodeSaIS1_EED2Ev, symObjAddr: 0x330C, symBinAddr: 0x100003A4C, symSize: 0x50 }
  - { offset: 0x194C2, size: 0x8, addend: 0x0, symName: __ZNSt12_Vector_baseIP9CacheNodeSaIS1_EE12_Vector_implC1Ev, symObjAddr: 0x32D4, symBinAddr: 0x100003A14, symSize: 0x38 }
  - { offset: 0x1952E, size: 0x8, addend: 0x0, symName: __ZNSt7__cxx1112basic_stringIcSt11char_traitsIcESaIcEEaSEOS4_, symObjAddr: 0x307C, symBinAddr: 0x1000037BC, symSize: 0x258 }
  - { offset: 0x1963C, size: 0x8, addend: 0x0, symName: __ZStneIcSt11char_traitsIcESaIcEEbRKNSt7__cxx1112basic_stringIT_T0_T1_EEPKS5_, symObjAddr: 0x3050, symBinAddr: 0x100003790, symSize: 0x2C }
  - { offset: 0x196AC, size: 0x8, addend: 0x0, symName: __ZNSt6vectorIP9CacheNodeSaIS1_EE3endEv, symObjAddr: 0x3020, symBinAddr: 0x100003760, symSize: 0x30 }
  - { offset: 0x19700, size: 0x8, addend: 0x0, symName: __ZNSt6vectorIP9CacheNodeSaIS1_EE5beginEv, symObjAddr: 0x2FF4, symBinAddr: 0x100003734, symSize: 0x2C }
  - { offset: 0x19754, size: 0x8, addend: 0x0, symName: __ZNSt6vectorIP9CacheNodeSaIS1_EEixEm, symObjAddr: 0x2F70, symBinAddr: 0x1000036B0, symSize: 0x84 }
  - { offset: 0x197AA, size: 0x8, addend: 0x0, symName: __ZNKSt6vectorIP9CacheNodeSaIS1_EE4sizeEv, symObjAddr: 0x2F30, symBinAddr: 0x100003670, symSize: 0x40 }
  - { offset: 0x197E5, size: 0x8, addend: 0x0, symName: __ZNKSt15__str_hash_baseIcSaIcENSt7__cxx1112basic_stringIcSt11char_traitsIcES0_EEEclERKS5_, symObjAddr: 0x2EE8, symBinAddr: 0x100003628, symSize: 0x48 }
  - { offset: 0x19820, size: 0x8, addend: 0x0, symName: __ZNSt6vectorIP9CacheNodeSaIS1_EEaSERKS3_, symObjAddr: 0x2BA0, symBinAddr: 0x1000032E0, symSize: 0x348 }
  - { offset: 0x199CC, size: 0x8, addend: 0x0, symName: __ZNSt6vectorIS_IP9CacheNodeSaIS1_EESaIS3_EEixEm, symObjAddr: 0x2B10, symBinAddr: 0x100003250, symSize: 0x90 }
  - { offset: 0x19A22, size: 0x8, addend: 0x0, symName: __ZNSt6vectorIS_IP9CacheNodeSaIS1_EESaIS3_EE6resizeEm, symObjAddr: 0x2A54, symBinAddr: 0x100003194, symSize: 0xBC }
  - { offset: 0x19A5D, size: 0x8, addend: 0x0, symName: __ZNKSt6vectorIS_IP9CacheNodeSaIS1_EESaIS3_EE4sizeEv, symObjAddr: 0x2A08, symBinAddr: 0x100003148, symSize: 0x4C }
  - { offset: 0x19A98, size: 0x8, addend: 0x0, symName: __ZNSt6vectorIP9CacheNodeSaIS1_EE9push_backERKS1_, symObjAddr: 0x2928, symBinAddr: 0x100003068, symSize: 0xE0 }
  - { offset: 0x19B88, size: 0x8, addend: 0x0, symName: __ZNSt7__cxx114listISt4pairINS_12basic_stringIcSt11char_traitsIcESaIcEEES6_ESaIS7_EE10push_frontEOS7_, symObjAddr: 0x28E8, symBinAddr: 0x100003028, symSize: 0x40 }
  - { offset: 0x19C2F, size: 0x8, addend: 0x0, symName: __ZNSt4pairINSt7__cxx1112basic_stringIcSt11char_traitsIcESaIcEEES5_EC1IS5_S5_Lb1EEERKS5_S9_, symObjAddr: 0x2890, symBinAddr: 0x100002FD0, symSize: 0x58 }
  - { offset: 0x19C79, size: 0x8, addend: 0x0, symName: __ZNSt7__cxx114listISt4pairINS_12basic_stringIcSt11char_traitsIcESaIcEEES6_ESaIS7_EE8pop_backEv, symObjAddr: 0x2818, symBinAddr: 0x100002F58, symSize: 0x78 }
  - { offset: 0x19CBE, size: 0x8, addend: 0x0, symName: __ZNSt13unordered_mapINSt7__cxx1112basic_stringIcSt11char_traitsIcESaIcEEESt14_List_iteratorISt4pairIS5_S5_EESt4hashIS5_ESt8equal_toIS5_ESaIS7_IKS5_S9_EEE5eraseERSE_, symObjAddr: 0x27F4, symBinAddr: 0x100002F34, symSize: 0x24 }
  - { offset: 0x19CF9, size: 0x8, addend: 0x0, symName: __ZNSt7__cxx114listISt4pairINS_12basic_stringIcSt11char_traitsIcESaIcEEES6_ESaIS7_EE4backEv, symObjAddr: 0x2780, symBinAddr: 0x100002EC0, symSize: 0x74 }
  - { offset: 0x19D51, size: 0x8, addend: 0x0, symName: __ZNKSt7__cxx114listISt4pairINS_12basic_stringIcSt11char_traitsIcESaIcEEES6_ESaIS7_EE4sizeEv, symObjAddr: 0x2764, symBinAddr: 0x100002EA4, symSize: 0x1C }
  - { offset: 0x19D7B, size: 0x8, addend: 0x0, symName: __ZNSt7__cxx1112basic_stringIcSt11char_traitsIcESaIcEEaSERKS4_, symObjAddr: 0x2740, symBinAddr: 0x100002E80, symSize: 0x24 }
  - { offset: 0x19DB8, size: 0x8, addend: 0x0, symName: __ZNSt8__detailneERKNS_14_Node_iteratorISt4pairIKNSt7__cxx1112basic_stringIcSt11char_traitsIcESaIcEEESt14_List_iteratorIS1_IS7_S7_EEELb0ELb1EEESF_, symObjAddr: 0x2714, symBinAddr: 0x100002E54, symSize: 0x2C }
  - { offset: 0x19E11, size: 0x8, addend: 0x0, symName: __ZNSt11unique_lockISt12shared_mutexED1Ev, symObjAddr: 0x26E0, symBinAddr: 0x100002E20, symSize: 0x34 }
  - { offset: 0x19E5E, size: 0x8, addend: 0x0, symName: __ZNSt11unique_lockISt12shared_mutexEC1ERS0_, symObjAddr: 0x2694, symBinAddr: 0x100002DD4, symSize: 0x4C }
  - { offset: 0x19ED8, size: 0x8, addend: 0x0, symName: __ZNSt7__cxx1112basic_stringIcSt11char_traitsIcESaIcEEC1ERKS4_, symObjAddr: 0x25C4, symBinAddr: 0x100002D04, symSize: 0xD0 }
  - { offset: 0x19FCA, size: 0x8, addend: 0x0, symName: __ZNKSt14_List_iteratorISt4pairINSt7__cxx1112basic_stringIcSt11char_traitsIcESaIcEEES6_EEptEv, symObjAddr: 0x25A4, symBinAddr: 0x100002CE4, symSize: 0x20 }
  - { offset: 0x19FF4, size: 0x8, addend: 0x0, symName: __ZNSt7__cxx114listISt4pairINS_12basic_stringIcSt11char_traitsIcESaIcEEES6_ESaIS7_EE6spliceESt20_List_const_iteratorIS7_ERS9_SB_, symObjAddr: 0x2560, symBinAddr: 0x100002CA0, symSize: 0x44 }
  - { offset: 0x1A09D, size: 0x8, addend: 0x0, symName: __ZNSt20_List_const_iteratorISt4pairINSt7__cxx1112basic_stringIcSt11char_traitsIcESaIcEEES6_EEC1ERKSt14_List_iteratorIS7_E, symObjAddr: 0x2538, symBinAddr: 0x100002C78, symSize: 0x28 }
  - { offset: 0x1A0CC, size: 0x8, addend: 0x0, symName: __ZNSt13unordered_mapINSt7__cxx1112basic_stringIcSt11char_traitsIcESaIcEEESt14_List_iteratorISt4pairIS5_S5_EESt4hashIS5_ESt8equal_toIS5_ESaIS7_IKS5_S9_EEEixERSE_, symObjAddr: 0x2514, symBinAddr: 0x100002C54, symSize: 0x24 }
  - { offset: 0x1A107, size: 0x8, addend: 0x0, symName: __ZNSt7__cxx114listISt4pairINS_12basic_stringIcSt11char_traitsIcESaIcEEES6_ESaIS7_EE5beginEv, symObjAddr: 0x24EC, symBinAddr: 0x100002C2C, symSize: 0x28 }
  - { offset: 0x1A178, size: 0x8, addend: 0x0, symName: __ZNSt7__cxx1112basic_stringIcSt11char_traitsIcESaIcEEC1IS3_EEPKcRKS3_, symObjAddr: 0x2450, symBinAddr: 0x100002B90, symSize: 0x9C }
  - { offset: 0x1A1D9, size: 0x8, addend: 0x0, symName: __ZNSt8__detaileqERKNS_14_Node_iteratorISt4pairIKNSt7__cxx1112basic_stringIcSt11char_traitsIcESaIcEEESt14_List_iteratorIS1_IS7_S7_EEELb0ELb1EEESF_, symObjAddr: 0x241C, symBinAddr: 0x100002B5C, symSize: 0x34 }
  - { offset: 0x1A240, size: 0x8, addend: 0x0, symName: __ZNSt13unordered_mapINSt7__cxx1112basic_stringIcSt11char_traitsIcESaIcEEESt14_List_iteratorISt4pairIS5_S5_EESt4hashIS5_ESt8equal_toIS5_ESaIS7_IKS5_S9_EEE3endEv, symObjAddr: 0x2400, symBinAddr: 0x100002B40, symSize: 0x1C }
  - { offset: 0x1A26A, size: 0x8, addend: 0x0, symName: __ZNSt13unordered_mapINSt7__cxx1112basic_stringIcSt11char_traitsIcESaIcEEESt14_List_iteratorISt4pairIS5_S5_EESt4hashIS5_ESt8equal_toIS5_ESaIS7_IKS5_S9_EEE4findERSE_, symObjAddr: 0x23DC, symBinAddr: 0x100002B1C, symSize: 0x24 }
  - { offset: 0x1A2BF, size: 0x8, addend: 0x0, symName: __ZNSt11shared_lockISt12shared_mutexED1Ev, symObjAddr: 0x23A4, symBinAddr: 0x100002AE4, symSize: 0x38 }
  - { offset: 0x1A30D, size: 0x8, addend: 0x0, symName: __ZNSt11shared_lockISt12shared_mutexEC1ERS0_, symObjAddr: 0x2360, symBinAddr: 0x100002AA0, symSize: 0x44 }
  - { offset: 0x1A390, size: 0x8, addend: 0x0, symName: __ZNSt7__cxx1110_List_baseISt4pairINS_12basic_stringIcSt11char_traitsIcESaIcEEES6_ESaIS7_EE10_List_implC1Ev, symObjAddr: 0x2328, symBinAddr: 0x100002A68, symSize: 0x38 }
  - { offset: 0x1A3FF, size: 0x8, addend: 0x0, symName: __ZSt3maxImERKT_S2_S2_, symObjAddr: 0x22F0, symBinAddr: 0x100002A30, symSize: 0x38 }
  - { offset: 0x1A443, size: 0x8, addend: 0x0, symName: __ZStplIcSt11char_traitsIcESaIcEENSt7__cxx1112basic_stringIT_T0_T1_EEPKS5_OS8_, symObjAddr: 0x22A4, symBinAddr: 0x1000029E4, symSize: 0x4C }
  - { offset: 0x1A515, size: 0x8, addend: 0x0, symName: __ZNSt7__cxx1112basic_stringIcSt11char_traitsIcESaIcEEC1EOS4_, symObjAddr: 0x2198, symBinAddr: 0x1000028D8, symSize: 0x10C }
  - { offset: 0x1A5B0, size: 0x8, addend: 0x0, symName: __ZNSt7__cxx1112basic_stringIcSt11char_traitsIcESaIcEE22__resize_and_overwriteIZNS_9to_stringEiEUlPcmE_EEvmT_, symObjAddr: 0x210C, symBinAddr: 0x10000284C, symSize: 0x8C }
  - { offset: 0x1A69E, size: 0x8, addend: 0x0, symName: __ZZNSt7__cxx1112basic_stringIcSt11char_traitsIcESaIcEE22__resize_and_overwriteIZNS_9to_stringEiEUlPcmE_EEvmT_EN11_TerminatorD1Ev, symObjAddr: 0x20D8, symBinAddr: 0x100002818, symSize: 0x34 }
  - { offset: 0x1A705, size: 0x8, addend: 0x0, symName: __ZNSt8__detail18__to_chars_10_implIjEEvPcjT_, symObjAddr: 0x1F24, symBinAddr: 0x100002664, symSize: 0x1B4 }
  - { offset: 0x1A7DF, size: 0x8, addend: 0x0, symName: __ZNSt7__cxx1112basic_stringIcSt11char_traitsIcESaIcEED1Ev, symObjAddr: 0x1EFC, symBinAddr: 0x10000263C, symSize: 0x28 }
  - { offset: 0x1A81F, size: 0x8, addend: 0x0, symName: __ZNSt7__cxx1112basic_stringIcSt11char_traitsIcESaIcEEC1Ev, symObjAddr: 0x1E88, symBinAddr: 0x1000025C8, symSize: 0x74 }
  - { offset: 0x1A8EB, size: 0x8, addend: 0x0, symName: __ZNSt7__cxx1112basic_stringIcSt11char_traitsIcESaIcEE12_Alloc_hiderD1Ev, symObjAddr: 0x1E5C, symBinAddr: 0x10000259C, symSize: 0x2C }
  - { offset: 0x1A930, size: 0x8, addend: 0x0, symName: __ZN9__gnu_cxx11char_traitsIcE6lengthEPKc, symObjAddr: 0x1E04, symBinAddr: 0x100002544, symSize: 0x58 }
  - { offset: 0x1A970, size: 0x8, addend: 0x0, symName: _main, symObjAddr: 0x15A0, symBinAddr: 0x100001CE0, symSize: 0x864 }
  - { offset: 0x1B11A, size: 0x8, addend: 0x0, symName: __ZN12ShardManagerD1Ev, symObjAddr: 0x1574, symBinAddr: 0x100001CB4, symSize: 0x2C }
  - { offset: 0x1B15D, size: 0x8, addend: 0x0, symName: __ZN12ShardManagerC1Ev, symObjAddr: 0x1548, symBinAddr: 0x100001C88, symSize: 0x2C }
  - { offset: 0x1B19D, size: 0x8, addend: 0x0, symName: __ZNSt6vectorIS_IP9CacheNodeSaIS1_EESaIS3_EEC1Ev, symObjAddr: 0x1528, symBinAddr: 0x100001C68, symSize: 0x20 }
  - { offset: 0x1B1DD, size: 0x8, addend: 0x0, symName: __ZNSt12_Vector_baseISt6vectorIP9CacheNodeSaIS2_EESaIS4_EEC2Ev, symObjAddr: 0x1508, symBinAddr: 0x100001C48, symSize: 0x20 }
  - { offset: 0x1B220, size: 0x8, addend: 0x0, symName: __ZNSt12_Vector_baseISt6vectorIP9CacheNodeSaIS2_EESaIS4_EE12_Vector_implD1Ev, symObjAddr: 0x14DC, symBinAddr: 0x100001C1C, symSize: 0x2C }
  - { offset: 0x1B283, size: 0x8, addend: 0x0, symName: __ZNSt6vectorIP9CacheNodeSaIS1_EEC1Ev, symObjAddr: 0x14BC, symBinAddr: 0x100001BFC, symSize: 0x20 }
  - { offset: 0x1B2C3, size: 0x8, addend: 0x0, symName: __ZNSt12_Vector_baseIP9CacheNodeSaIS1_EEC2Ev, symObjAddr: 0x149C, symBinAddr: 0x100001BDC, symSize: 0x20 }
  - { offset: 0x1B306, size: 0x8, addend: 0x0, symName: __ZNSt12_Vector_baseIP9CacheNodeSaIS1_EE12_Vector_implD1Ev, symObjAddr: 0x1470, symBinAddr: 0x100001BB0, symSize: 0x2C }
  - { offset: 0x1B34F, size: 0x8, addend: 0x0, symName: __ZN10APIService11retrieveAPIERKNSt7__cxx1112basic_stringIcSt11char_traitsIcESaIcEEE, symObjAddr: 0x13A8, symBinAddr: 0x100001AE8, symSize: 0xC8 }
  - { offset: 0x1B399, size: 0x8, addend: 0x0, symName: __ZN10APIService9insertAPIERKNSt7__cxx1112basic_stringIcSt11char_traitsIcESaIcEEES7_, symObjAddr: 0x1310, symBinAddr: 0x100001A50, symSize: 0x98 }
  - { offset: 0x1B40A, size: 0x8, addend: 0x0, symName: __ZN10APIServiceC1ER12ShardManager, symObjAddr: 0x12EC, symBinAddr: 0x100001A2C, symSize: 0x24 }
  - { offset: 0x1B439, size: 0x8, addend: 0x0, symName: __ZN12ShardManager8retrieveERKNSt7__cxx1112basic_stringIcSt11char_traitsIcESaIcEEE, symObjAddr: 0x1118, symBinAddr: 0x100001858, symSize: 0x1D4 }
  - { offset: 0x1B613, size: 0x8, addend: 0x0, symName: __ZN12ShardManager6insertERKNSt7__cxx1112basic_stringIcSt11char_traitsIcESaIcEEES7_, symObjAddr: 0x1034, symBinAddr: 0x100001774, symSize: 0xE4 }
  - { offset: 0x1B7CA, size: 0x8, addend: 0x0, symName: __ZN12ShardManager13getShardIndexERKNSt7__cxx1112basic_stringIcSt11char_traitsIcESaIcEEE, symObjAddr: 0xFF0, symBinAddr: 0x100001730, symSize: 0x44 }
  - { offset: 0x1B814, size: 0x8, addend: 0x0, symName: __ZN12ShardManager16registerReplicasEiSt6vectorIP9CacheNodeSaIS2_EE, symObjAddr: 0xF68, symBinAddr: 0x1000016A8, symSize: 0x88 }
  - { offset: 0x1B85F, size: 0x8, addend: 0x0, symName: __ZN12ShardManager15registerPrimaryEP9CacheNode, symObjAddr: 0xF40, symBinAddr: 0x100001680, symSize: 0x28 }
  - { offset: 0x1B899, size: 0x8, addend: 0x0, symName: __ZN9CacheNode6insertERKNSt7__cxx1112basic_stringIcSt11char_traitsIcESaIcEEES7_, symObjAddr: 0xF0C, symBinAddr: 0x10000164C, symSize: 0x34 }
  - { offset: 0x1B8E3, size: 0x8, addend: 0x0, symName: __ZN9CacheNode8retrieveERKNSt7__cxx1112basic_stringIcSt11char_traitsIcESaIcEEE, symObjAddr: 0xED0, symBinAddr: 0x100001610, symSize: 0x3C }
  - { offset: 0x1B95E, size: 0x8, addend: 0x0, symName: __ZN9CacheNodeC1ENSt7__cxx1112basic_stringIcSt11char_traitsIcESaIcEEEbm, symObjAddr: 0xE80, symBinAddr: 0x1000015C0, symSize: 0x50 }
  - { offset: 0x1B9A0, size: 0x8, addend: 0x0, symName: __ZN8LRUCache3putERKNSt7__cxx1112basic_stringIcSt11char_traitsIcESaIcEEES7_, symObjAddr: 0xC90, symBinAddr: 0x1000013D0, symSize: 0x1F0 }
  - { offset: 0x1BA34, size: 0x8, addend: 0x0, symName: __ZNSt4pairINSt7__cxx1112basic_stringIcSt11char_traitsIcESaIcEEES5_ED1Ev, symObjAddr: 0xC64, symBinAddr: 0x1000013A4, symSize: 0x2C }
  - { offset: 0x1BA79, size: 0x8, addend: 0x0, symName: __ZNSt4pairINSt7__cxx1112basic_stringIcSt11char_traitsIcESaIcEEES5_EC1ERKS6_, symObjAddr: 0xC04, symBinAddr: 0x100001344, symSize: 0x60 }
  - { offset: 0x1BAA8, size: 0x8, addend: 0x0, symName: __ZN8LRUCache3getERKNSt7__cxx1112basic_stringIcSt11char_traitsIcESaIcEEE, symObjAddr: 0xAA0, symBinAddr: 0x1000011E0, symSize: 0x164 }
  - { offset: 0x1BBAD, size: 0x8, addend: 0x0, symName: __ZN8LRUCacheC1Em, symObjAddr: 0xA54, symBinAddr: 0x100001194, symSize: 0x4C }
  - { offset: 0x1BBF6, size: 0x8, addend: 0x0, symName: __ZNSt12shared_mutexC1Ev, symObjAddr: 0xA34, symBinAddr: 0x100001174, symSize: 0x20 }
  - { offset: 0x1BC36, size: 0x8, addend: 0x0, symName: __ZNSt22__shared_mutex_pthreadC1Ev, symObjAddr: 0x9D0, symBinAddr: 0x100001110, symSize: 0x64 }
  - { offset: 0x1BC76, size: 0x8, addend: 0x0, symName: __ZNSt13unordered_mapINSt7__cxx1112basic_stringIcSt11char_traitsIcESaIcEEESt14_List_iteratorISt4pairIS5_S5_EESt4hashIS5_ESt8equal_toIS5_ESaIS7_IKS5_S9_EEEC1Ev, symObjAddr: 0x9B0, symBinAddr: 0x1000010F0, symSize: 0x20 }
  - { offset: 0x1BCB6, size: 0x8, addend: 0x0, symName: __ZNSt10_HashtableINSt7__cxx1112basic_stringIcSt11char_traitsIcESaIcEEESt4pairIKS5_St14_List_iteratorIS6_IS5_S5_EEESaISB_ENSt8__detail10_Select1stESt8equal_toIS5_ESt4hashIS5_ENSD_18_Mod_range_hashingENSD_20_Default_ranged_hashENSD_20_Prime_rehash_policyENSD_17_Hashtable_traitsILb1ELb0ELb1EEEEC1Ev, symObjAddr: 0x940, symBinAddr: 0x100001080, symSize: 0x70 }
  - { offset: 0x1BCF6, size: 0x8, addend: 0x0, symName: __ZNSt8__detail16_Hashtable_allocISaINS_10_Hash_nodeISt4pairIKNSt7__cxx1112basic_stringIcSt11char_traitsIcESaIcEEESt14_List_iteratorIS2_IS8_S8_EEELb1EEEEEC2Ev, symObjAddr: 0x914, symBinAddr: 0x100001054, symSize: 0x2C }
  - { offset: 0x1BD7D, size: 0x8, addend: 0x0, symName: __ZNSt8__detail15_Hashtable_baseINSt7__cxx1112basic_stringIcSt11char_traitsIcESaIcEEESt4pairIKS6_St14_List_iteratorIS7_IS6_S6_EEENS_10_Select1stESt8equal_toIS6_ESt4hashIS6_ENS_18_Mod_range_hashingENS_20_Default_ranged_hashENS_17_Hashtable_traitsILb1ELb0ELb1EEEEC2Ev, symObjAddr: 0x8F4, symBinAddr: 0x100001034, symSize: 0x20 }
  - { offset: 0x1BDBD, size: 0x8, addend: 0x0, symName: __ZNSt8__detail15_Hash_code_baseINSt7__cxx1112basic_stringIcSt11char_traitsIcESaIcEEESt4pairIKS6_St14_List_iteratorIS7_IS6_S6_EEENS_10_Select1stESt4hashIS6_ENS_18_Mod_range_hashingENS_20_Default_ranged_hashELb1EEC2Ev, symObjAddr: 0x8E0, symBinAddr: 0x100001020, symSize: 0x14 }
  - { offset: 0x1BDFD, size: 0x8, addend: 0x0, symName: __ZNSt7__cxx114listISt4pairINS_12basic_stringIcSt11char_traitsIcESaIcEEES6_ESaIS7_EEC1Ev, symObjAddr: 0x8C0, symBinAddr: 0x100001000, symSize: 0x20 }
  - { offset: 0x1BE3D, size: 0x8, addend: 0x0, symName: __ZNSt7__cxx1110_List_baseISt4pairINS_12basic_stringIcSt11char_traitsIcESaIcEEES6_ESaIS7_EEC2Ev, symObjAddr: 0x8A0, symBinAddr: 0x100000FE0, symSize: 0x20 }
  - { offset: 0x1BE63, size: 0x8, addend: 0x0, symName: __ZNSt12shared_mutex13unlock_sharedEv, symObjAddr: 0x880, symBinAddr: 0x100000FC0, symSize: 0x20 }
  - { offset: 0x1BE8D, size: 0x8, addend: 0x0, symName: __ZNSt12shared_mutex11lock_sharedEv, symObjAddr: 0x860, symBinAddr: 0x100000FA0, symSize: 0x20 }
  - { offset: 0x1BEB7, size: 0x8, addend: 0x0, symName: __ZNSt12shared_mutex6unlockEv, symObjAddr: 0x840, symBinAddr: 0x100000F80, symSize: 0x20 }
  - { offset: 0x1BEE1, size: 0x8, addend: 0x0, symName: __ZNSt12shared_mutex4lockEv, symObjAddr: 0x820, symBinAddr: 0x100000F60, symSize: 0x20 }
  - { offset: 0x1BF0B, size: 0x8, addend: 0x0, symName: __ZNSt22__shared_mutex_pthread13unlock_sharedEv, symObjAddr: 0x800, symBinAddr: 0x100000F40, symSize: 0x20 }
  - { offset: 0x1BF35, size: 0x8, addend: 0x0, symName: __ZNSt22__shared_mutex_pthread11lock_sharedEv, symObjAddr: 0x780, symBinAddr: 0x100000EC0, symSize: 0x80 }
  - { offset: 0x1BF8A, size: 0x8, addend: 0x0, symName: __ZNSt22__shared_mutex_pthread6unlockEv, symObjAddr: 0x720, symBinAddr: 0x100000E60, symSize: 0x60 }
  - { offset: 0x1BFDF, size: 0x8, addend: 0x0, symName: __ZNSt22__shared_mutex_pthread4lockEv, symObjAddr: 0x6AC, symBinAddr: 0x100000DEC, symSize: 0x74 }
  - { offset: 0x1C030, size: 0x8, addend: 0x0, symName: __ZSt23__glibcxx_rwlock_unlockP24_opaque_pthread_rwlock_t, symObjAddr: 0x66C, symBinAddr: 0x100000DAC, symSize: 0x40 }
  - { offset: 0x1C072, size: 0x8, addend: 0x0, symName: __ZSt23__glibcxx_rwlock_wrlockP24_opaque_pthread_rwlock_t, symObjAddr: 0x62C, symBinAddr: 0x100000D6C, symSize: 0x40 }
  - { offset: 0x1C0B4, size: 0x8, addend: 0x0, symName: __ZSt23__glibcxx_rwlock_rdlockP24_opaque_pthread_rwlock_t, symObjAddr: 0x5EC, symBinAddr: 0x100000D2C, symSize: 0x40 }
  - { offset: 0x1C0FA, size: 0x8, addend: 0x0, symName: __ZNSt8__detail17_List_node_header7_M_baseEv, symObjAddr: 0x5D8, symBinAddr: 0x100000D18, symSize: 0x14 }
  - { offset: 0x1C124, size: 0x8, addend: 0x0, symName: __ZNSt8__detail17_List_node_header7_M_initEv, symObjAddr: 0x5A0, symBinAddr: 0x100000CE0, symSize: 0x38 }
  - { offset: 0x1C168, size: 0x8, addend: 0x0, symName: __ZNSt8__detail17_List_node_headerC1Ev, symObjAddr: 0x580, symBinAddr: 0x100000CC0, symSize: 0x20 }
  - { offset: 0x1C18E, size: 0x8, addend: 0x0, symName: __ZNKSt8__detail15_List_node_base7_M_baseEv, symObjAddr: 0x56C, symBinAddr: 0x100000CAC, symSize: 0x14 }
  - { offset: 0x1C1B4, size: 0x8, addend: 0x0, symName: __ZSt3minImERKT_S2_S2_, symObjAddr: 0x534, symBinAddr: 0x100000C74, symSize: 0x38 }
  - { offset: 0x1C1FA, size: 0x8, addend: 0x0, symName: __ZNSt8__detail20_Prime_rehash_policy8_M_resetEm, symObjAddr: 0x510, symBinAddr: 0x100000C50, symSize: 0x24 }
  - { offset: 0x1C235, size: 0x8, addend: 0x0, symName: __ZNKSt8__detail20_Prime_rehash_policy8_M_stateEv, symObjAddr: 0x4F8, symBinAddr: 0x100000C38, symSize: 0x18 }
  - { offset: 0x1C287, size: 0x8, addend: 0x0, symName: __ZNSt8__detail20_Prime_rehash_policyC1Ef, symObjAddr: 0x4CC, symBinAddr: 0x100000C0C, symSize: 0x2C }
  - { offset: 0x1C2B6, size: 0x8, addend: 0x0, symName: __ZNKSt8__detail18_Mod_range_hashingclEmm, symObjAddr: 0x49C, symBinAddr: 0x100000BDC, symSize: 0x30 }
  - { offset: 0x1C31C, size: 0x8, addend: 0x0, symName: __ZNSt8__detail15_Hash_node_baseC1Ev, symObjAddr: 0x480, symBinAddr: 0x100000BC0, symSize: 0x1C }
  - { offset: 0x1C346, size: 0x8, addend: 0x0, symName: __ZNSt8__detail15_Hash_node_baseC2Ev, symObjAddr: 0x464, symBinAddr: 0x100000BA4, symSize: 0x1C }
  - { offset: 0x1C368, size: 0x8, addend: 0x0, symName: __ZNSt8__detail14__to_chars_lenIjEEjT_i, symObjAddr: 0x38C, symBinAddr: 0x100000ACC, symSize: 0xD8 }
  - { offset: 0x1C3EA, size: 0x8, addend: 0x0, symName: __ZNSt7__cxx119to_stringEi, symObjAddr: 0x2DC, symBinAddr: 0x100000A1C, symSize: 0xB0 }
  - { offset: 0x1C47D, size: 0x8, addend: 0x0, symName: __ZZNSt7__cxx119to_stringEiENKUlPcmE_clES0_m, symObjAddr: 0x280, symBinAddr: 0x1000009C0, symSize: 0x5C }
  - { offset: 0x1C529, size: 0x8, addend: 0x0, symName: __ZNSt10_Hash_impl4hashEPKvmm, symObjAddr: 0x254, symBinAddr: 0x100000994, symSize: 0x2C }
  - { offset: 0x1C585, size: 0x8, addend: 0x0, symName: __ZNSt11char_traitsIcE4copyEPcPKcm, symObjAddr: 0x200, symBinAddr: 0x100000940, symSize: 0x54 }
  - { offset: 0x1C5D1, size: 0x8, addend: 0x0, symName: __ZNSt11char_traitsIcE4moveEPcPKcm, symObjAddr: 0x1BC, symBinAddr: 0x1000008FC, symSize: 0x44 }
  - { offset: 0x1C61D, size: 0x8, addend: 0x0, symName: __ZNSt11char_traitsIcE6lengthEPKc, symObjAddr: 0x180, symBinAddr: 0x1000008C0, symSize: 0x3C }
  - { offset: 0x1C661, size: 0x8, addend: 0x0, symName: __ZNSt11char_traitsIcE7compareEPKcS2_m, symObjAddr: 0x90, symBinAddr: 0x1000007D0, symSize: 0xF0 }
  - { offset: 0x1C6EB, size: 0x8, addend: 0x0, symName: __ZNSt11char_traitsIcE2ltERKcS2_, symObjAddr: 0x58, symBinAddr: 0x100000798, symSize: 0x38 }
  - { offset: 0x1C726, size: 0x8, addend: 0x0, symName: __ZNSt11char_traitsIcE6assignERcRKc, symObjAddr: 0x30, symBinAddr: 0x100000770, symSize: 0x28 }
  - { offset: 0x1C768, size: 0x8, addend: 0x0, symName: __ZdlPvS_, symObjAddr: 0x18, symBinAddr: 0x100000758, symSize: 0x18 }
  - { offset: 0x1C79E, size: 0x8, addend: 0x0, symName: __ZnwmPv, symObjAddr: 0x0, symBinAddr: 0x100000740, symSize: 0x18 }
...
